

Microchip MPLAB XC8 Assembler V2.41 build 20230208172133 
                                                                                               Thu Sep 07 20:11:54 2023

Microchip MPLAB XC8 C Compiler v2.41 (Free license) build 20230208172133 Og1 
     1                           	processor	16F1939
     2                           	pagewidth 120
     3                           	opt	flic
     4                           	psect	nvCOMMON,global,class=COMMON,space=1,delta=1,noexec
     5                           	psect	nvBANK0,global,class=BANK0,space=1,delta=1,noexec
     6                           	psect	cinit,global,class=CODE,merge=1,delta=2
     7                           	psect	bssCOMMON,global,class=COMMON,space=1,delta=1,noexec
     8                           	psect	bssBANK0,global,class=BANK0,space=1,delta=1,noexec
     9                           	psect	cstackCOMMON,global,class=COMMON,space=1,delta=1,noexec
    10                           	psect	maintext,global,class=CODE,merge=1,split=1,delta=2
    11                           	psect	text1,local,class=CODE,merge=1,delta=2
    12                           	psect	text2,local,class=CODE,merge=1,delta=2
    13                           	psect	text3,local,class=CODE,merge=1,delta=2
    14                           	psect	text4,local,class=CODE,merge=1,delta=2
    15                           	psect	text5,local,class=CODE,merge=1,delta=2,group=1
    16                           	psect	text6,local,class=CODE,merge=1,delta=2,group=1
    17                           	psect	config,global,abs,ovrld,class=CONFIG,space=4,delta=2,noexec
    18                           	dabs	1,0x7E,2
    19     0000                     
    20                           ; Generated 06/07/2023 GMT
    21                           ; 
    22                           ; Copyright © 2023, Microchip Technology Inc. and its subsidiaries ("Microchip")
    23                           ; All rights reserved.
    24                           ; 
    25                           ; This software is developed by Microchip Technology Inc. and its subsidiaries ("Microch
      +                          ip").
    26                           ; 
    27                           ; Redistribution and use in source and binary forms, with or without modification, are
    28                           ; permitted provided that the following conditions are met:
    29                           ; 
    30                           ;     1. Redistributions of source code must retain the above copyright notice, this lis
      +                          t of
    31                           ;        conditions and the following disclaimer.
    32                           ; 
    33                           ;     2. Redistributions in binary form must reproduce the above copyright notice, this 
      +                          list
    34                           ;        of conditions and the following disclaimer in the documentation and/or other
    35                           ;        materials provided with the distribution. Publication is not required when
    36                           ;        this file is used in an embedded application.
    37                           ; 
    38                           ;     3. Microchip's name may not be used to endorse or promote products derived from th
      +                          is
    39                           ;        software without specific prior written permission.
    40                           ; 
    41                           ; THIS SOFTWARE IS PROVIDED BY MICROCHIP "AS IS" AND ANY EXPRESS OR IMPLIED WARRANTIES,
    42                           ; INCLUDING, BUT NOT LIMITED TO, THE IMPLIED WARRANTIES OF MERCHANTABILITY AND FITNESS F
      +                          OR
    43                           ; PURPOSE ARE DISCLAIMED.  IN NO EVENT SHALL MICROCHIP BE LIABLE FOR ANY DIRECT, INDIREC
      +                          T,
    44                           ; INCIDENTAL, SPECIAL, EXEMPLARY, OR CONSEQUENTIAL DAMAGES (INCLUDING BUT NOT LIMITED TO
    45                           ; PROCUREMENT OF SUBSTITUTE GOODS OR SERVICES; LOSS OF USE, DATA OR PROFITS; OR BUSINESS
    46                           ; INTERRUPTION) HOWSOEVER CAUSED AND ON ANY THEORY OF LIABILITY, WHETHER IN CONTRACT, ST
      +                          RICT
    47                           ; LIABILITY, OR TORT (INCLUDING NEGLIGENCE OR OTHERWISE) ARISING IN ANY WAY OUT OF THE U
      +                          SE OF
    48                           ; THIS SOFTWARE, EVEN IF ADVISED OF THE POSSIBILITY OF SUCH DAMAGE.
    49                           ; 
    50                           ; 
    51                           ; Code-generator required, PIC16F1939 Definitions
    52                           ; 
    53                           ; SFR Addresses
    54     0000                     	;# 
    55     0001                     	;# 
    56     0002                     	;# 
    57     0003                     	;# 
    58     0004                     	;# 
    59     0005                     	;# 
    60     0006                     	;# 
    61     0007                     	;# 
    62     0008                     	;# 
    63     0009                     	;# 
    64     000A                     	;# 
    65     000B                     	;# 
    66     000C                     	;# 
    67     000D                     	;# 
    68     000E                     	;# 
    69     000F                     	;# 
    70     0010                     	;# 
    71     0011                     	;# 
    72     0012                     	;# 
    73     0013                     	;# 
    74     0015                     	;# 
    75     0016                     	;# 
    76     0016                     	;# 
    77     0017                     	;# 
    78     0018                     	;# 
    79     0019                     	;# 
    80     001A                     	;# 
    81     001B                     	;# 
    82     001C                     	;# 
    83     001E                     	;# 
    84     001F                     	;# 
    85     008C                     	;# 
    86     008D                     	;# 
    87     008E                     	;# 
    88     008F                     	;# 
    89     0090                     	;# 
    90     0091                     	;# 
    91     0092                     	;# 
    92     0093                     	;# 
    93     0095                     	;# 
    94     0096                     	;# 
    95     0097                     	;# 
    96     0098                     	;# 
    97     0099                     	;# 
    98     009A                     	;# 
    99     009B                     	;# 
   100     009B                     	;# 
   101     009C                     	;# 
   102     009D                     	;# 
   103     009E                     	;# 
   104     010C                     	;# 
   105     010D                     	;# 
   106     010E                     	;# 
   107     010F                     	;# 
   108     0110                     	;# 
   109     0111                     	;# 
   110     0112                     	;# 
   111     0113                     	;# 
   112     0114                     	;# 
   113     0115                     	;# 
   114     0116                     	;# 
   115     0117                     	;# 
   116     0118                     	;# 
   117     0119                     	;# 
   118     011A                     	;# 
   119     011B                     	;# 
   120     011D                     	;# 
   121     018C                     	;# 
   122     018D                     	;# 
   123     018F                     	;# 
   124     0190                     	;# 
   125     0191                     	;# 
   126     0191                     	;# 
   127     0192                     	;# 
   128     0193                     	;# 
   129     0193                     	;# 
   130     0193                     	;# 
   131     0194                     	;# 
   132     0195                     	;# 
   133     0196                     	;# 
   134     0199                     	;# 
   135     019A                     	;# 
   136     019B                     	;# 
   137     019B                     	;# 
   138     019B                     	;# 
   139     019B                     	;# 
   140     019C                     	;# 
   141     019C                     	;# 
   142     019D                     	;# 
   143     019E                     	;# 
   144     019F                     	;# 
   145     020D                     	;# 
   146     0210                     	;# 
   147     0211                     	;# 
   148     0212                     	;# 
   149     0213                     	;# 
   150     0214                     	;# 
   151     0215                     	;# 
   152     0215                     	;# 
   153     0216                     	;# 
   154     0217                     	;# 
   155     0291                     	;# 
   156     0291                     	;# 
   157     0292                     	;# 
   158     0293                     	;# 
   159     0294                     	;# 
   160     0295                     	;# 
   161     0295                     	;# 
   162     0296                     	;# 
   163     0298                     	;# 
   164     0298                     	;# 
   165     0299                     	;# 
   166     029A                     	;# 
   167     029B                     	;# 
   168     029C                     	;# 
   169     029C                     	;# 
   170     029D                     	;# 
   171     029E                     	;# 
   172     029F                     	;# 
   173     0311                     	;# 
   174     0311                     	;# 
   175     0312                     	;# 
   176     0313                     	;# 
   177     0314                     	;# 
   178     0315                     	;# 
   179     0315                     	;# 
   180     0316                     	;# 
   181     0318                     	;# 
   182     0318                     	;# 
   183     0319                     	;# 
   184     031A                     	;# 
   185     031C                     	;# 
   186     031C                     	;# 
   187     031D                     	;# 
   188     031E                     	;# 
   189     0394                     	;# 
   190     0395                     	;# 
   191     0396                     	;# 
   192     0415                     	;# 
   193     0416                     	;# 
   194     0417                     	;# 
   195     041C                     	;# 
   196     041D                     	;# 
   197     041E                     	;# 
   198     0791                     	;# 
   199     0792                     	;# 
   200     0793                     	;# 
   201     0794                     	;# 
   202     0795                     	;# 
   203     0798                     	;# 
   204     0799                     	;# 
   205     079A                     	;# 
   206     07A0                     	;# 
   207     07A1                     	;# 
   208     07A2                     	;# 
   209     07A3                     	;# 
   210     07A4                     	;# 
   211     07A5                     	;# 
   212     07A6                     	;# 
   213     07A7                     	;# 
   214     07A8                     	;# 
   215     07A9                     	;# 
   216     07AA                     	;# 
   217     07AB                     	;# 
   218     0FE4                     	;# 
   219     0FE5                     	;# 
   220     0FE6                     	;# 
   221     0FE7                     	;# 
   222     0FE8                     	;# 
   223     0FE9                     	;# 
   224     0FEA                     	;# 
   225     0FEB                     	;# 
   226     0FED                     	;# 
   227     0FEE                     	;# 
   228     0FEF                     	;# 
   229     0000                     	;# 
   230     0001                     	;# 
   231     0002                     	;# 
   232     0003                     	;# 
   233     0004                     	;# 
   234     0005                     	;# 
   235     0006                     	;# 
   236     0007                     	;# 
   237     0008                     	;# 
   238     0009                     	;# 
   239     000A                     	;# 
   240     000B                     	;# 
   241     000C                     	;# 
   242     000D                     	;# 
   243     000E                     	;# 
   244     000F                     	;# 
   245     0010                     	;# 
   246     0011                     	;# 
   247     0012                     	;# 
   248     0013                     	;# 
   249     0015                     	;# 
   250     0016                     	;# 
   251     0016                     	;# 
   252     0017                     	;# 
   253     0018                     	;# 
   254     0019                     	;# 
   255     001A                     	;# 
   256     001B                     	;# 
   257     001C                     	;# 
   258     001E                     	;# 
   259     001F                     	;# 
   260     008C                     	;# 
   261     008D                     	;# 
   262     008E                     	;# 
   263     008F                     	;# 
   264     0090                     	;# 
   265     0091                     	;# 
   266     0092                     	;# 
   267     0093                     	;# 
   268     0095                     	;# 
   269     0096                     	;# 
   270     0097                     	;# 
   271     0098                     	;# 
   272     0099                     	;# 
   273     009A                     	;# 
   274     009B                     	;# 
   275     009B                     	;# 
   276     009C                     	;# 
   277     009D                     	;# 
   278     009E                     	;# 
   279     010C                     	;# 
   280     010D                     	;# 
   281     010E                     	;# 
   282     010F                     	;# 
   283     0110                     	;# 
   284     0111                     	;# 
   285     0112                     	;# 
   286     0113                     	;# 
   287     0114                     	;# 
   288     0115                     	;# 
   289     0116                     	;# 
   290     0117                     	;# 
   291     0118                     	;# 
   292     0119                     	;# 
   293     011A                     	;# 
   294     011B                     	;# 
   295     011D                     	;# 
   296     018C                     	;# 
   297     018D                     	;# 
   298     018F                     	;# 
   299     0190                     	;# 
   300     0191                     	;# 
   301     0191                     	;# 
   302     0192                     	;# 
   303     0193                     	;# 
   304     0193                     	;# 
   305     0193                     	;# 
   306     0194                     	;# 
   307     0195                     	;# 
   308     0196                     	;# 
   309     0199                     	;# 
   310     019A                     	;# 
   311     019B                     	;# 
   312     019B                     	;# 
   313     019B                     	;# 
   314     019B                     	;# 
   315     019C                     	;# 
   316     019C                     	;# 
   317     019D                     	;# 
   318     019E                     	;# 
   319     019F                     	;# 
   320     020D                     	;# 
   321     0210                     	;# 
   322     0211                     	;# 
   323     0212                     	;# 
   324     0213                     	;# 
   325     0214                     	;# 
   326     0215                     	;# 
   327     0215                     	;# 
   328     0216                     	;# 
   329     0217                     	;# 
   330     0291                     	;# 
   331     0291                     	;# 
   332     0292                     	;# 
   333     0293                     	;# 
   334     0294                     	;# 
   335     0295                     	;# 
   336     0295                     	;# 
   337     0296                     	;# 
   338     0298                     	;# 
   339     0298                     	;# 
   340     0299                     	;# 
   341     029A                     	;# 
   342     029B                     	;# 
   343     029C                     	;# 
   344     029C                     	;# 
   345     029D                     	;# 
   346     029E                     	;# 
   347     029F                     	;# 
   348     0311                     	;# 
   349     0311                     	;# 
   350     0312                     	;# 
   351     0313                     	;# 
   352     0314                     	;# 
   353     0315                     	;# 
   354     0315                     	;# 
   355     0316                     	;# 
   356     0318                     	;# 
   357     0318                     	;# 
   358     0319                     	;# 
   359     031A                     	;# 
   360     031C                     	;# 
   361     031C                     	;# 
   362     031D                     	;# 
   363     031E                     	;# 
   364     0394                     	;# 
   365     0395                     	;# 
   366     0396                     	;# 
   367     0415                     	;# 
   368     0416                     	;# 
   369     0417                     	;# 
   370     041C                     	;# 
   371     041D                     	;# 
   372     041E                     	;# 
   373     0791                     	;# 
   374     0792                     	;# 
   375     0793                     	;# 
   376     0794                     	;# 
   377     0795                     	;# 
   378     0798                     	;# 
   379     0799                     	;# 
   380     079A                     	;# 
   381     07A0                     	;# 
   382     07A1                     	;# 
   383     07A2                     	;# 
   384     07A3                     	;# 
   385     07A4                     	;# 
   386     07A5                     	;# 
   387     07A6                     	;# 
   388     07A7                     	;# 
   389     07A8                     	;# 
   390     07A9                     	;# 
   391     07AA                     	;# 
   392     07AB                     	;# 
   393     0FE4                     	;# 
   394     0FE5                     	;# 
   395     0FE6                     	;# 
   396     0FE7                     	;# 
   397     0FE8                     	;# 
   398     0FE9                     	;# 
   399     0FEA                     	;# 
   400     0FEB                     	;# 
   401     0FED                     	;# 
   402     0FEE                     	;# 
   403     0FEF                     	;# 
   404     0000                     	;# 
   405     0001                     	;# 
   406     0002                     	;# 
   407     0003                     	;# 
   408     0004                     	;# 
   409     0005                     	;# 
   410     0006                     	;# 
   411     0007                     	;# 
   412     0008                     	;# 
   413     0009                     	;# 
   414     000A                     	;# 
   415     000B                     	;# 
   416     000C                     	;# 
   417     000D                     	;# 
   418     000E                     	;# 
   419     000F                     	;# 
   420     0010                     	;# 
   421     0011                     	;# 
   422     0012                     	;# 
   423     0013                     	;# 
   424     0015                     	;# 
   425     0016                     	;# 
   426     0016                     	;# 
   427     0017                     	;# 
   428     0018                     	;# 
   429     0019                     	;# 
   430     001A                     	;# 
   431     001B                     	;# 
   432     001C                     	;# 
   433     001E                     	;# 
   434     001F                     	;# 
   435     008C                     	;# 
   436     008D                     	;# 
   437     008E                     	;# 
   438     008F                     	;# 
   439     0090                     	;# 
   440     0091                     	;# 
   441     0092                     	;# 
   442     0093                     	;# 
   443     0095                     	;# 
   444     0096                     	;# 
   445     0097                     	;# 
   446     0098                     	;# 
   447     0099                     	;# 
   448     009A                     	;# 
   449     009B                     	;# 
   450     009B                     	;# 
   451     009C                     	;# 
   452     009D                     	;# 
   453     009E                     	;# 
   454     010C                     	;# 
   455     010D                     	;# 
   456     010E                     	;# 
   457     010F                     	;# 
   458     0110                     	;# 
   459     0111                     	;# 
   460     0112                     	;# 
   461     0113                     	;# 
   462     0114                     	;# 
   463     0115                     	;# 
   464     0116                     	;# 
   465     0117                     	;# 
   466     0118                     	;# 
   467     0119                     	;# 
   468     011A                     	;# 
   469     011B                     	;# 
   470     011D                     	;# 
   471     018C                     	;# 
   472     018D                     	;# 
   473     018F                     	;# 
   474     0190                     	;# 
   475     0191                     	;# 
   476     0191                     	;# 
   477     0192                     	;# 
   478     0193                     	;# 
   479     0193                     	;# 
   480     0193                     	;# 
   481     0194                     	;# 
   482     0195                     	;# 
   483     0196                     	;# 
   484     0199                     	;# 
   485     019A                     	;# 
   486     019B                     	;# 
   487     019B                     	;# 
   488     019B                     	;# 
   489     019B                     	;# 
   490     019C                     	;# 
   491     019C                     	;# 
   492     019D                     	;# 
   493     019E                     	;# 
   494     019F                     	;# 
   495     020D                     	;# 
   496     0210                     	;# 
   497     0211                     	;# 
   498     0212                     	;# 
   499     0213                     	;# 
   500     0214                     	;# 
   501     0215                     	;# 
   502     0215                     	;# 
   503     0216                     	;# 
   504     0217                     	;# 
   505     0291                     	;# 
   506     0291                     	;# 
   507     0292                     	;# 
   508     0293                     	;# 
   509     0294                     	;# 
   510     0295                     	;# 
   511     0295                     	;# 
   512     0296                     	;# 
   513     0298                     	;# 
   514     0298                     	;# 
   515     0299                     	;# 
   516     029A                     	;# 
   517     029B                     	;# 
   518     029C                     	;# 
   519     029C                     	;# 
   520     029D                     	;# 
   521     029E                     	;# 
   522     029F                     	;# 
   523     0311                     	;# 
   524     0311                     	;# 
   525     0312                     	;# 
   526     0313                     	;# 
   527     0314                     	;# 
   528     0315                     	;# 
   529     0315                     	;# 
   530     0316                     	;# 
   531     0318                     	;# 
   532     0318                     	;# 
   533     0319                     	;# 
   534     031A                     	;# 
   535     031C                     	;# 
   536     031C                     	;# 
   537     031D                     	;# 
   538     031E                     	;# 
   539     0394                     	;# 
   540     0395                     	;# 
   541     0396                     	;# 
   542     0415                     	;# 
   543     0416                     	;# 
   544     0417                     	;# 
   545     041C                     	;# 
   546     041D                     	;# 
   547     041E                     	;# 
   548     0791                     	;# 
   549     0792                     	;# 
   550     0793                     	;# 
   551     0794                     	;# 
   552     0795                     	;# 
   553     0798                     	;# 
   554     0799                     	;# 
   555     079A                     	;# 
   556     07A0                     	;# 
   557     07A1                     	;# 
   558     07A2                     	;# 
   559     07A3                     	;# 
   560     07A4                     	;# 
   561     07A5                     	;# 
   562     07A6                     	;# 
   563     07A7                     	;# 
   564     07A8                     	;# 
   565     07A9                     	;# 
   566     07AA                     	;# 
   567     07AB                     	;# 
   568     0FE4                     	;# 
   569     0FE5                     	;# 
   570     0FE6                     	;# 
   571     0FE7                     	;# 
   572     0FE8                     	;# 
   573     0FE9                     	;# 
   574     0FEA                     	;# 
   575     0FEB                     	;# 
   576     0FED                     	;# 
   577     0FEE                     	;# 
   578     0FEF                     	;# 
   579     0000                     	;# 
   580     0001                     	;# 
   581     0002                     	;# 
   582     0003                     	;# 
   583     0004                     	;# 
   584     0005                     	;# 
   585     0006                     	;# 
   586     0007                     	;# 
   587     0008                     	;# 
   588     0009                     	;# 
   589     000A                     	;# 
   590     000B                     	;# 
   591     000C                     	;# 
   592     000D                     	;# 
   593     000E                     	;# 
   594     000F                     	;# 
   595     0010                     	;# 
   596     0011                     	;# 
   597     0012                     	;# 
   598     0013                     	;# 
   599     0015                     	;# 
   600     0016                     	;# 
   601     0016                     	;# 
   602     0017                     	;# 
   603     0018                     	;# 
   604     0019                     	;# 
   605     001A                     	;# 
   606     001B                     	;# 
   607     001C                     	;# 
   608     001E                     	;# 
   609     001F                     	;# 
   610     008C                     	;# 
   611     008D                     	;# 
   612     008E                     	;# 
   613     008F                     	;# 
   614     0090                     	;# 
   615     0091                     	;# 
   616     0092                     	;# 
   617     0093                     	;# 
   618     0095                     	;# 
   619     0096                     	;# 
   620     0097                     	;# 
   621     0098                     	;# 
   622     0099                     	;# 
   623     009A                     	;# 
   624     009B                     	;# 
   625     009B                     	;# 
   626     009C                     	;# 
   627     009D                     	;# 
   628     009E                     	;# 
   629     010C                     	;# 
   630     010D                     	;# 
   631     010E                     	;# 
   632     010F                     	;# 
   633     0110                     	;# 
   634     0111                     	;# 
   635     0112                     	;# 
   636     0113                     	;# 
   637     0114                     	;# 
   638     0115                     	;# 
   639     0116                     	;# 
   640     0117                     	;# 
   641     0118                     	;# 
   642     0119                     	;# 
   643     011A                     	;# 
   644     011B                     	;# 
   645     011D                     	;# 
   646     018C                     	;# 
   647     018D                     	;# 
   648     018F                     	;# 
   649     0190                     	;# 
   650     0191                     	;# 
   651     0191                     	;# 
   652     0192                     	;# 
   653     0193                     	;# 
   654     0193                     	;# 
   655     0193                     	;# 
   656     0194                     	;# 
   657     0195                     	;# 
   658     0196                     	;# 
   659     0199                     	;# 
   660     019A                     	;# 
   661     019B                     	;# 
   662     019B                     	;# 
   663     019B                     	;# 
   664     019B                     	;# 
   665     019C                     	;# 
   666     019C                     	;# 
   667     019D                     	;# 
   668     019E                     	;# 
   669     019F                     	;# 
   670     020D                     	;# 
   671     0210                     	;# 
   672     0211                     	;# 
   673     0212                     	;# 
   674     0213                     	;# 
   675     0214                     	;# 
   676     0215                     	;# 
   677     0215                     	;# 
   678     0216                     	;# 
   679     0217                     	;# 
   680     0291                     	;# 
   681     0291                     	;# 
   682     0292                     	;# 
   683     0293                     	;# 
   684     0294                     	;# 
   685     0295                     	;# 
   686     0295                     	;# 
   687     0296                     	;# 
   688     0298                     	;# 
   689     0298                     	;# 
   690     0299                     	;# 
   691     029A                     	;# 
   692     029B                     	;# 
   693     029C                     	;# 
   694     029C                     	;# 
   695     029D                     	;# 
   696     029E                     	;# 
   697     029F                     	;# 
   698     0311                     	;# 
   699     0311                     	;# 
   700     0312                     	;# 
   701     0313                     	;# 
   702     0314                     	;# 
   703     0315                     	;# 
   704     0315                     	;# 
   705     0316                     	;# 
   706     0318                     	;# 
   707     0318                     	;# 
   708     0319                     	;# 
   709     031A                     	;# 
   710     031C                     	;# 
   711     031C                     	;# 
   712     031D                     	;# 
   713     031E                     	;# 
   714     0394                     	;# 
   715     0395                     	;# 
   716     0396                     	;# 
   717     0415                     	;# 
   718     0416                     	;# 
   719     0417                     	;# 
   720     041C                     	;# 
   721     041D                     	;# 
   722     041E                     	;# 
   723     0791                     	;# 
   724     0792                     	;# 
   725     0793                     	;# 
   726     0794                     	;# 
   727     0795                     	;# 
   728     0798                     	;# 
   729     0799                     	;# 
   730     079A                     	;# 
   731     07A0                     	;# 
   732     07A1                     	;# 
   733     07A2                     	;# 
   734     07A3                     	;# 
   735     07A4                     	;# 
   736     07A5                     	;# 
   737     07A6                     	;# 
   738     07A7                     	;# 
   739     07A8                     	;# 
   740     07A9                     	;# 
   741     07AA                     	;# 
   742     07AB                     	;# 
   743     0FE4                     	;# 
   744     0FE5                     	;# 
   745     0FE6                     	;# 
   746     0FE7                     	;# 
   747     0FE8                     	;# 
   748     0FE9                     	;# 
   749     0FEA                     	;# 
   750     0FEB                     	;# 
   751     0FED                     	;# 
   752     0FEE                     	;# 
   753     0FEF                     	;# 
   754                           
   755                           	psect	nvCOMMON
   756     007D                     __pnvCOMMON:
   757     007D                     _direccion:
   758     007D                     	ds	1
   759                           
   760                           	psect	nvBANK0
   761     0024                     __pnvBANK0:
   762     0024                     _numero:
   763     0024                     	ds	1
   764     000D                     _PORTB	set	13
   765     008F                     _TRISD	set	143
   766     008E                     _TRISC	set	142
   767     0098                     _OSCTUNE	set	152
   768     0099                     _OSCCON	set	153
   769     010F                     _LATDbits	set	271
   770     010E                     _LATCbits	set	270
   771     0116                     _BORCON	set	278
   772     018D                     _ANSELBbits	set	397
   773                           
   774                           	psect	cinit
   775     07F6                     start_initialization:	
   776                           ; #config settings
   777                           
   778     07F6                     __initialization:
   779                           
   780                           ; Clear objects allocated to COMMON
   781     07F6  01FB               	clrf	__pbssCOMMON& (0+127)
   782     07F7  01FC               	clrf	(__pbssCOMMON+1)& (0+127)
   783                           
   784                           ; Clear objects allocated to BANK0
   785     07F8  0020               	movlb	0	; select bank0
   786     07F9  01A0               	clrf	__pbssBANK0& (0+127)
   787     07FA  01A1               	clrf	(__pbssBANK0+1)& (0+127)
   788     07FB  01A2               	clrf	(__pbssBANK0+2)& (0+127)
   789     07FC  01A3               	clrf	(__pbssBANK0+3)& (0+127)
   790     07FD                     end_of_initialization:	
   791                           ;End of C runtime variable initialization code
   792                           
   793     07FD                     __end_of__initialization:
   794     07FD  0020               	movlb	0
   795     07FE  3186  2E1C         	ljmp	_main	;jump to C main() function
   796                           
   797                           	psect	bssCOMMON
   798     007B                     __pbssCOMMON:
   799     007B                     _contador:
   800     007B                     	ds	2
   801                           
   802                           	psect	bssBANK0
   803     0020                     __pbssBANK0:
   804     0020                     _dig2:
   805     0020                     	ds	2
   806     0022                     _dig1:
   807     0022                     	ds	2
   808                           
   809                           	psect	cstackCOMMON
   810     0070                     __pcstackCOMMON:
   811     0070                     ?_display_init:
   812     0070                     ??_display_init:	
   813                           ; 1 bytes @ 0x0
   814                           
   815     0070                     ?_display_cc1:	
   816                           ; 1 bytes @ 0x0
   817                           
   818     0070                     ?_display_cc2:	
   819                           ; 1 bytes @ 0x0
   820                           
   821     0070                     ?_init_punto7:	
   822                           ; 1 bytes @ 0x0
   823                           
   824     0070                     ??_init_punto7:	
   825                           ; 1 bytes @ 0x0
   826                           
   827     0070                     ?_main:	
   828                           ; 1 bytes @ 0x0
   829                           
   830     0070                     ?___awdiv:	
   831                           ; 1 bytes @ 0x0
   832                           
   833     0070                     ?___awmod:	
   834                           ; 2 bytes @ 0x0
   835                           
   836     0070                     display_cc1@dig:	
   837                           ; 2 bytes @ 0x0
   838                           
   839     0070                     display_cc2@dig2:	
   840                           ; 2 bytes @ 0x0
   841                           
   842     0070                     ___awdiv@divisor:	
   843                           ; 2 bytes @ 0x0
   844                           
   845     0070                     ___awmod@divisor:	
   846                           ; 2 bytes @ 0x0
   847                           
   848                           
   849                           ; 2 bytes @ 0x0
   850     0070                     	ds	2
   851     0072                     ??_display_cc1:
   852     0072                     ??_display_cc2:	
   853                           ; 1 bytes @ 0x2
   854                           
   855     0072                     ___awdiv@dividend:	
   856                           ; 1 bytes @ 0x2
   857                           
   858     0072                     ___awmod@dividend:	
   859                           ; 2 bytes @ 0x2
   860                           
   861                           
   862                           ; 2 bytes @ 0x2
   863     0072                     	ds	2
   864     0074                     ??___awdiv:
   865     0074                     ??___awmod:	
   866                           ; 1 bytes @ 0x4
   867                           
   868                           
   869                           ; 1 bytes @ 0x4
   870     0074                     	ds	1
   871     0075                     ___awdiv@counter:
   872     0075                     ___awmod@counter:	
   873                           ; 1 bytes @ 0x5
   874                           
   875                           
   876                           ; 1 bytes @ 0x5
   877     0075                     	ds	1
   878     0076                     ___awdiv@sign:
   879     0076                     ___awmod@sign:	
   880                           ; 1 bytes @ 0x6
   881                           
   882                           
   883                           ; 1 bytes @ 0x6
   884     0076                     	ds	1
   885     0077                     ___awdiv@quotient:
   886                           
   887                           ; 2 bytes @ 0x7
   888     0077                     	ds	2
   889     0079                     ??_main:
   890                           
   891                           ; 1 bytes @ 0x9
   892     0079                     	ds	2
   893                           
   894                           	psect	maintext
   895     061C                     __pmaintext:	
   896 ;;
   897 ;;Main: autosize = 0, tempsize = 2, incstack = 0, save=0
   898 ;;
   899 ;; *************** function _main *****************
   900 ;; Defined at:
   901 ;;		line 8 in file "main.c"
   902 ;; Parameters:    Size  Location     Type
   903 ;;		None
   904 ;; Auto vars:     Size  Location     Type
   905 ;;		None
   906 ;; Return value:  Size  Location     Type
   907 ;;                  1    wreg      void 
   908 ;; Registers used:
   909 ;;		wreg, fsr0l, fsr0h, status,2, status,0, pclath, cstack
   910 ;; Tracked objects:
   911 ;;		On entry : B1F/0
   912 ;;		On exit  : 0/0
   913 ;;		Unchanged: 0/0
   914 ;; Data sizes:     COMMON   BANK0   BANK1   BANK2   BANK3   BANK4   BANK5   BANK6   BANK7   BANK8   BANK9  BANK10  BANK1
      +1  BANK12
   915 ;;      Params:         0       0       0       0       0       0       0       0       0       0       0       0       
      +0       0
   916 ;;      Locals:         0       0       0       0       0       0       0       0       0       0       0       0       
      +0       0
   917 ;;      Temps:          2       0       0       0       0       0       0       0       0       0       0       0       
      +0       0
   918 ;;      Totals:         2       0       0       0       0       0       0       0       0       0       0       0       
      +0       0
   919 ;;Total ram usage:        2 bytes
   920 ;; Hardware stack levels required when called: 1
   921 ;; This function calls:
   922 ;;		___awdiv
   923 ;;		___awmod
   924 ;;		_display_cc1
   925 ;;		_display_cc2
   926 ;;		_display_init
   927 ;;		_init_punto7
   928 ;; This function is called by:
   929 ;;		Startup code after reset
   930 ;; This function uses a non-reentrant model
   931 ;;
   932                           
   933     061C                     _main:	
   934                           ;psect for function _main
   935                           
   936     061C                     l1159:	
   937                           ;incstack = 0
   938                           ; Regs used in _main: [wreg-fsr0h+status,2+status,0+pclath+cstack]
   939                           
   940                           
   941                           ;main.c: 9:     init_punto7();
   942     061C  3184  245B  3186   	fcall	_init_punto7
   943     061F                     l1161:
   944                           
   945                           ;main.c: 10:     display_init();
   946     061F  3184  2457  3186   	fcall	_display_init
   947     0622                     l1163:
   948                           
   949                           ;main.c: 11:     contador = 0;
   950     0622  01FB               	clrf	_contador
   951     0623  01FC               	clrf	_contador+1
   952     0624                     l1165:
   953                           
   954                           ;main.c: 12:     direccion = 1;
   955     0624  01FD               	clrf	_direccion
   956     0625  0AFD               	incf	_direccion,f
   957     0626                     l40:	
   958                           ;main.c: 14:     while(1){
   959                           
   960                           
   961                           ;main.c: 16:         numero = PORTB & 0x03;
   962     0626  0020               	movlb	0	; select bank0
   963     0627  080D               	movf	13,w	;volatile
   964     0628  3903               	andlw	3
   965     0629  00A4               	movwf	_numero
   966                           
   967                           ;main.c: 18:         switch(numero){
   968     062A  2FDE               	goto	l1279
   969     062B                     l1167:
   970     062B  037D               	decf	_direccion,w
   971     062C  1D03               	btfss	3,2
   972     062D  2E2F               	goto	u471
   973     062E  2E30               	goto	u470
   974     062F                     u471:
   975     062F  2EB8               	goto	l1197
   976     0630                     u470:
   977     0630                     l1169:
   978                           
   979                           ;main.c: 20:                         if(contador == 98 || contador == 99){
   980     0630  3062               	movlw	98
   981     0631  067B               	xorwf	_contador,w
   982     0632  047C               	iorwf	_contador+1,w
   983     0633  1903               	btfsc	3,2
   984     0634  2E36               	goto	u481
   985     0635  2E37               	goto	u480
   986     0636                     u481:
   987     0636  2E3E               	goto	l1173
   988     0637                     u480:
   989     0637                     l1171:
   990     0637  3063               	movlw	99
   991     0638  067B               	xorwf	_contador,w
   992     0639  047C               	iorwf	_contador+1,w
   993     063A  1D03               	btfss	3,2
   994     063B  2E3D               	goto	u491
   995     063C  2E3E               	goto	u490
   996     063D                     u491:
   997     063D  2E78               	goto	l1185
   998     063E                     u490:
   999     063E                     l1173:
  1000                           
  1001                           ;main.c: 21:                             contador = 0;
  1002     063E  01FB               	clrf	_contador
  1003     063F  01FC               	clrf	_contador+1
  1004     0640                     l1175:
  1005                           
  1006                           ;main.c: 22:                             dig1 = contador / 10;
  1007     0640  300A               	movlw	10
  1008     0641  00F0               	movwf	___awdiv@divisor
  1009     0642  3000               	movlw	0
  1010     0643  00F1               	movwf	___awdiv@divisor+1
  1011     0644  3000               	movlw	0
  1012     0645  00F2               	movwf	___awdiv@dividend
  1013     0646  00F3               	movwf	___awdiv@dividend+1
  1014     0647  3184  24BB  3186   	fcall	___awdiv
  1015     064A  0871               	movf	?___awdiv+1,w
  1016     064B  0020               	movlb	0	; select bank0
  1017     064C  00A3               	movwf	_dig1+1
  1018     064D  0870               	movf	?___awdiv,w
  1019     064E  00A2               	movwf	_dig1
  1020     064F                     l1177:
  1021                           
  1022                           ;main.c: 23:                             dig2 = contador % 10;
  1023     064F  300A               	movlw	10
  1024     0650  00F0               	movwf	___awmod@divisor
  1025     0651  3000               	movlw	0
  1026     0652  00F1               	movwf	___awmod@divisor+1
  1027     0653  3000               	movlw	0
  1028     0654  00F2               	movwf	___awmod@dividend
  1029     0655  00F3               	movwf	___awmod@dividend+1
  1030     0656  3184  2468  3186   	fcall	___awmod
  1031     0659  0871               	movf	?___awmod+1,w
  1032     065A  0020               	movlb	0	; select bank0
  1033     065B  00A1               	movwf	_dig2+1
  1034     065C  0870               	movf	?___awmod,w
  1035     065D  00A0               	movwf	_dig2
  1036     065E                     l1179:
  1037                           
  1038                           ;main.c: 25:                             display_cc1(dig1);
  1039     065E  0823               	movf	_dig1+1,w
  1040     065F  00F1               	movwf	display_cc1@dig+1
  1041     0660  0822               	movf	_dig1,w
  1042     0661  00F0               	movwf	display_cc1@dig
  1043     0662  3185  251A  3186   	fcall	_display_cc1
  1044     0665                     l1181:
  1045                           
  1046                           ;main.c: 26:                             display_cc2(dig2);
  1047     0665  0020               	movlb	0	; select bank0
  1048     0666  0821               	movf	_dig2+1,w
  1049     0667  00F1               	movwf	display_cc2@dig2+1
  1050     0668  0820               	movf	_dig2,w
  1051     0669  00F0               	movwf	display_cc2@dig2
  1052     066A  3185  259B  3186   	fcall	_display_cc2
  1053     066D                     l1183:
  1054                           
  1055                           ;main.c: 27:                             _delay((unsigned long)((200)*(20000000/4000.0))
      +                          );
  1056     066D  3006               	movlw	6
  1057     066E  00FA               	movwf	??_main+1
  1058     066F  3013               	movlw	19
  1059     0670  00F9               	movwf	??_main
  1060     0671  30AE               	movlw	174
  1061     0672                     u557:
  1062     0672  0B89               	decfsz	9,f
  1063     0673  2E72               	goto	u557
  1064     0674  0BF9               	decfsz	??_main,f
  1065     0675  2E72               	goto	u557
  1066     0676  0BFA               	decfsz	??_main+1,f
  1067     0677  2E72               	goto	u557
  1068     0678                     l1185:
  1069                           
  1070                           ;main.c: 30:                         contador = contador + 2;
  1071     0678  087B               	movf	_contador,w
  1072     0679  3E02               	addlw	2
  1073     067A  00FB               	movwf	_contador
  1074     067B  3000               	movlw	0
  1075     067C  3D7C               	addwfc	_contador+1,w
  1076     067D  00FC               	movwf	_contador+1
  1077     067E                     l1187:
  1078                           
  1079                           ;main.c: 31:                         dig1 = contador / 10;
  1080     067E  300A               	movlw	10
  1081     067F  00F0               	movwf	___awdiv@divisor
  1082     0680  3000               	movlw	0
  1083     0681  00F1               	movwf	___awdiv@divisor+1
  1084     0682  087C               	movf	_contador+1,w
  1085     0683  00F3               	movwf	___awdiv@dividend+1
  1086     0684  087B               	movf	_contador,w
  1087     0685  00F2               	movwf	___awdiv@dividend
  1088     0686  3184  24BB  3186   	fcall	___awdiv
  1089     0689  0871               	movf	?___awdiv+1,w
  1090     068A  0020               	movlb	0	; select bank0
  1091     068B  00A3               	movwf	_dig1+1
  1092     068C  0870               	movf	?___awdiv,w
  1093     068D  00A2               	movwf	_dig1
  1094     068E                     l1189:
  1095                           
  1096                           ;main.c: 32:                         dig2 = contador % 10;
  1097     068E  300A               	movlw	10
  1098     068F  00F0               	movwf	___awmod@divisor
  1099     0690  3000               	movlw	0
  1100     0691  00F1               	movwf	___awmod@divisor+1
  1101     0692  087C               	movf	_contador+1,w
  1102     0693  00F3               	movwf	___awmod@dividend+1
  1103     0694  087B               	movf	_contador,w
  1104     0695  00F2               	movwf	___awmod@dividend
  1105     0696  3184  2468  3186   	fcall	___awmod
  1106     0699  0871               	movf	?___awmod+1,w
  1107     069A  0020               	movlb	0	; select bank0
  1108     069B  00A1               	movwf	_dig2+1
  1109     069C  0870               	movf	?___awmod,w
  1110     069D  00A0               	movwf	_dig2
  1111     069E                     l1191:
  1112                           
  1113                           ;main.c: 34:                         display_cc1(dig1);
  1114     069E  0823               	movf	_dig1+1,w
  1115     069F  00F1               	movwf	display_cc1@dig+1
  1116     06A0  0822               	movf	_dig1,w
  1117     06A1  00F0               	movwf	display_cc1@dig
  1118     06A2  3185  251A  3186   	fcall	_display_cc1
  1119     06A5                     l1193:
  1120                           
  1121                           ;main.c: 35:                         display_cc2(dig2);
  1122     06A5  0020               	movlb	0	; select bank0
  1123     06A6  0821               	movf	_dig2+1,w
  1124     06A7  00F1               	movwf	display_cc2@dig2+1
  1125     06A8  0820               	movf	_dig2,w
  1126     06A9  00F0               	movwf	display_cc2@dig2
  1127     06AA  3185  259B  3186   	fcall	_display_cc2
  1128     06AD                     l1195:
  1129                           
  1130                           ;main.c: 36:                         _delay((unsigned long)((200)*(20000000/4000.0)));
  1131     06AD  3006               	movlw	6
  1132     06AE  00FA               	movwf	??_main+1
  1133     06AF  3013               	movlw	19
  1134     06B0  00F9               	movwf	??_main
  1135     06B1  30AE               	movlw	174
  1136     06B2                     u567:
  1137     06B2  0B89               	decfsz	9,f
  1138     06B3  2EB2               	goto	u567
  1139     06B4  0BF9               	decfsz	??_main,f
  1140     06B5  2EB2               	goto	u567
  1141     06B6  0BFA               	decfsz	??_main+1,f
  1142     06B7  2EB2               	goto	u567
  1143     06B8                     l1197:
  1144                           
  1145                           ;main.c: 40:                     if(direccion == 0){
  1146     06B8  087D               	movf	_direccion,w
  1147     06B9  1D03               	btfss	3,2
  1148     06BA  2EBC               	goto	u501
  1149     06BB  2EBD               	goto	u500
  1150     06BC                     u501:
  1151     06BC  2E26               	goto	l40
  1152     06BD                     u500:
  1153     06BD                     l1199:
  1154                           
  1155                           ;main.c: 41:                         if(contador == 1 || contador == 0){
  1156     06BD  037B               	decf	_contador,w
  1157     06BE  047C               	iorwf	_contador+1,w
  1158     06BF  1903               	btfsc	3,2
  1159     06C0  2EC2               	goto	u511
  1160     06C1  2EC3               	goto	u510
  1161     06C2                     u511:
  1162     06C2  2EC9               	goto	l1203
  1163     06C3                     u510:
  1164     06C3                     l1201:
  1165     06C3  087B               	movf	_contador,w
  1166     06C4  047C               	iorwf	_contador+1,w
  1167     06C5  1D03               	btfss	3,2
  1168     06C6  2EC8               	goto	u521
  1169     06C7  2EC9               	goto	u520
  1170     06C8                     u521:
  1171     06C8  2F07               	goto	l1213
  1172     06C9                     u520:
  1173     06C9                     l1203:
  1174                           
  1175                           ;main.c: 42:                             contador = 99;
  1176     06C9  3063               	movlw	99
  1177     06CA  00FB               	movwf	_contador
  1178     06CB  3000               	movlw	0
  1179     06CC  00FC               	movwf	_contador+1
  1180     06CD                     l1205:
  1181                           
  1182                           ;main.c: 43:                             dig1 = contador / 10;
  1183     06CD  300A               	movlw	10
  1184     06CE  00F0               	movwf	___awdiv@divisor
  1185     06CF  3000               	movlw	0
  1186     06D0  00F1               	movwf	___awdiv@divisor+1
  1187     06D1  3063               	movlw	99
  1188     06D2  00F2               	movwf	___awdiv@dividend
  1189     06D3  3000               	movlw	0
  1190     06D4  00F3               	movwf	___awdiv@dividend+1
  1191     06D5  3184  24BB  3186   	fcall	___awdiv
  1192     06D8  0871               	movf	?___awdiv+1,w
  1193     06D9  0020               	movlb	0	; select bank0
  1194     06DA  00A3               	movwf	_dig1+1
  1195     06DB  0870               	movf	?___awdiv,w
  1196     06DC  00A2               	movwf	_dig1
  1197     06DD                     l1207:
  1198                           
  1199                           ;main.c: 44:                             dig2 = contador % 10;
  1200     06DD  300A               	movlw	10
  1201     06DE  00F0               	movwf	___awmod@divisor
  1202     06DF  3000               	movlw	0
  1203     06E0  00F1               	movwf	___awmod@divisor+1
  1204     06E1  3063               	movlw	99
  1205     06E2  00F2               	movwf	___awmod@dividend
  1206     06E3  3000               	movlw	0
  1207     06E4  00F3               	movwf	___awmod@dividend+1
  1208     06E5  3184  2468  3186   	fcall	___awmod
  1209     06E8  0871               	movf	?___awmod+1,w
  1210     06E9  0020               	movlb	0	; select bank0
  1211     06EA  00A1               	movwf	_dig2+1
  1212     06EB  0870               	movf	?___awmod,w
  1213     06EC  00A0               	movwf	_dig2
  1214     06ED                     l1209:
  1215                           
  1216                           ;main.c: 46:                             display_cc1(dig1);
  1217     06ED  0823               	movf	_dig1+1,w
  1218     06EE  00F1               	movwf	display_cc1@dig+1
  1219     06EF  0822               	movf	_dig1,w
  1220     06F0  00F0               	movwf	display_cc1@dig
  1221     06F1  3185  251A  3186   	fcall	_display_cc1
  1222     06F4                     l1211:
  1223                           
  1224                           ;main.c: 47:                             display_cc2(dig2);
  1225     06F4  0020               	movlb	0	; select bank0
  1226     06F5  0821               	movf	_dig2+1,w
  1227     06F6  00F1               	movwf	display_cc2@dig2+1
  1228     06F7  0820               	movf	_dig2,w
  1229     06F8  00F0               	movwf	display_cc2@dig2
  1230     06F9  3185  259B  3186   	fcall	_display_cc2
  1231                           
  1232                           ;main.c: 48:                             _delay((unsigned long)((200)*(20000000/4000.0))
      +                          );
  1233     06FC  3006               	movlw	6
  1234     06FD  00FA               	movwf	??_main+1
  1235     06FE  3013               	movlw	19
  1236     06FF  00F9               	movwf	??_main
  1237     0700  30AE               	movlw	174
  1238     0701                     u577:
  1239     0701  0B89               	decfsz	9,f
  1240     0702  2F01               	goto	u577
  1241     0703  0BF9               	decfsz	??_main,f
  1242     0704  2F01               	goto	u577
  1243     0705  0BFA               	decfsz	??_main+1,f
  1244     0706  2F01               	goto	u577
  1245     0707                     l1213:
  1246                           
  1247                           ;main.c: 50:                         contador = contador - 2;
  1248     0707  087B               	movf	_contador,w
  1249     0708  3EFE               	addlw	254
  1250     0709  00FB               	movwf	_contador
  1251     070A  30FF               	movlw	255
  1252     070B  3D7C               	addwfc	_contador+1,w
  1253     070C  00FC               	movwf	_contador+1
  1254     070D                     l1215:
  1255                           
  1256                           ;main.c: 51:                         dig1 = contador / 10;
  1257     070D  300A               	movlw	10
  1258     070E  00F0               	movwf	___awdiv@divisor
  1259     070F  3000               	movlw	0
  1260     0710  00F1               	movwf	___awdiv@divisor+1
  1261     0711  087C               	movf	_contador+1,w
  1262     0712  00F3               	movwf	___awdiv@dividend+1
  1263     0713  087B               	movf	_contador,w
  1264     0714  00F2               	movwf	___awdiv@dividend
  1265     0715  3184  24BB  3186   	fcall	___awdiv
  1266     0718  0871               	movf	?___awdiv+1,w
  1267     0719  0020               	movlb	0	; select bank0
  1268     071A  00A3               	movwf	_dig1+1
  1269     071B  0870               	movf	?___awdiv,w
  1270     071C  00A2               	movwf	_dig1
  1271     071D                     l1217:
  1272                           
  1273                           ;main.c: 52:                         dig2 = contador % 10;
  1274     071D  300A               	movlw	10
  1275     071E  00F0               	movwf	___awmod@divisor
  1276     071F  3000               	movlw	0
  1277     0720  00F1               	movwf	___awmod@divisor+1
  1278     0721  087C               	movf	_contador+1,w
  1279     0722  00F3               	movwf	___awmod@dividend+1
  1280     0723  087B               	movf	_contador,w
  1281     0724  00F2               	movwf	___awmod@dividend
  1282     0725  3184  2468  3186   	fcall	___awmod
  1283     0728  0871               	movf	?___awmod+1,w
  1284     0729  0020               	movlb	0	; select bank0
  1285     072A  00A1               	movwf	_dig2+1
  1286     072B  0870               	movf	?___awmod,w
  1287     072C  00A0               	movwf	_dig2
  1288     072D                     l1219:
  1289                           
  1290                           ;main.c: 54:                         display_cc1(dig1);
  1291     072D  0823               	movf	_dig1+1,w
  1292     072E  00F1               	movwf	display_cc1@dig+1
  1293     072F  0822               	movf	_dig1,w
  1294     0730  00F0               	movwf	display_cc1@dig
  1295     0731  3185  251A  3186   	fcall	_display_cc1
  1296     0734                     l1221:
  1297                           
  1298                           ;main.c: 55:                         display_cc2(dig2);
  1299     0734  0020               	movlb	0	; select bank0
  1300     0735  0821               	movf	_dig2+1,w
  1301     0736  00F1               	movwf	display_cc2@dig2+1
  1302     0737  0820               	movf	_dig2,w
  1303     0738  00F0               	movwf	display_cc2@dig2
  1304     0739  3185  259B  3186   	fcall	_display_cc2
  1305     073C                     l1223:
  1306                           
  1307                           ;main.c: 56:                         _delay((unsigned long)((200)*(20000000/4000.0)));
  1308     073C  3006               	movlw	6
  1309     073D  00FA               	movwf	??_main+1
  1310     073E  3013               	movlw	19
  1311     073F  00F9               	movwf	??_main
  1312     0740  30AE               	movlw	174
  1313     0741                     u587:
  1314     0741  0B89               	decfsz	9,f
  1315     0742  2F41               	goto	u587
  1316     0743  0BF9               	decfsz	??_main,f
  1317     0744  2F41               	goto	u587
  1318     0745  0BFA               	decfsz	??_main+1,f
  1319     0746  2F41               	goto	u587
  1320     0747  2E26               	goto	l40
  1321     0748                     l1225:
  1322     0748  01FD               	clrf	_direccion
  1323     0749                     l1227:
  1324                           
  1325                           ;main.c: 60:                     if(contador == 0){
  1326     0749  087B               	movf	_contador,w
  1327     074A  047C               	iorwf	_contador+1,w
  1328     074B  1D03               	btfss	3,2
  1329     074C  2F4E               	goto	u531
  1330     074D  2F4F               	goto	u530
  1331     074E                     u531:
  1332     074E  2F8D               	goto	l1239
  1333     074F                     u530:
  1334     074F                     l1229:
  1335                           
  1336                           ;main.c: 61:                         contador = 99;
  1337     074F  3063               	movlw	99
  1338     0750  00FB               	movwf	_contador
  1339     0751  3000               	movlw	0
  1340     0752  00FC               	movwf	_contador+1
  1341     0753                     l1231:
  1342                           
  1343                           ;main.c: 62:                         dig1 = contador / 10;
  1344     0753  300A               	movlw	10
  1345     0754  00F0               	movwf	___awdiv@divisor
  1346     0755  3000               	movlw	0
  1347     0756  00F1               	movwf	___awdiv@divisor+1
  1348     0757  3063               	movlw	99
  1349     0758  00F2               	movwf	___awdiv@dividend
  1350     0759  3000               	movlw	0
  1351     075A  00F3               	movwf	___awdiv@dividend+1
  1352     075B  3184  24BB  3186   	fcall	___awdiv
  1353     075E  0871               	movf	?___awdiv+1,w
  1354     075F  0020               	movlb	0	; select bank0
  1355     0760  00A3               	movwf	_dig1+1
  1356     0761  0870               	movf	?___awdiv,w
  1357     0762  00A2               	movwf	_dig1
  1358     0763                     l1233:
  1359                           
  1360                           ;main.c: 63:                         dig2 = contador % 10;
  1361     0763  300A               	movlw	10
  1362     0764  00F0               	movwf	___awmod@divisor
  1363     0765  3000               	movlw	0
  1364     0766  00F1               	movwf	___awmod@divisor+1
  1365     0767  3063               	movlw	99
  1366     0768  00F2               	movwf	___awmod@dividend
  1367     0769  3000               	movlw	0
  1368     076A  00F3               	movwf	___awmod@dividend+1
  1369     076B  3184  2468  3186   	fcall	___awmod
  1370     076E  0871               	movf	?___awmod+1,w
  1371     076F  0020               	movlb	0	; select bank0
  1372     0770  00A1               	movwf	_dig2+1
  1373     0771  0870               	movf	?___awmod,w
  1374     0772  00A0               	movwf	_dig2
  1375     0773                     l1235:
  1376                           
  1377                           ;main.c: 65:                         display_cc1(dig1);
  1378     0773  0823               	movf	_dig1+1,w
  1379     0774  00F1               	movwf	display_cc1@dig+1
  1380     0775  0822               	movf	_dig1,w
  1381     0776  00F0               	movwf	display_cc1@dig
  1382     0777  3185  251A  3186   	fcall	_display_cc1
  1383     077A                     l1237:
  1384                           
  1385                           ;main.c: 66:                         display_cc2(dig2);
  1386     077A  0020               	movlb	0	; select bank0
  1387     077B  0821               	movf	_dig2+1,w
  1388     077C  00F1               	movwf	display_cc2@dig2+1
  1389     077D  0820               	movf	_dig2,w
  1390     077E  00F0               	movwf	display_cc2@dig2
  1391     077F  3185  259B  3186   	fcall	_display_cc2
  1392                           
  1393                           ;main.c: 67:                         _delay((unsigned long)((200)*(20000000/4000.0)));
  1394     0782  3006               	movlw	6
  1395     0783  00FA               	movwf	??_main+1
  1396     0784  3013               	movlw	19
  1397     0785  00F9               	movwf	??_main
  1398     0786  30AE               	movlw	174
  1399     0787                     u597:
  1400     0787  0B89               	decfsz	9,f
  1401     0788  2F87               	goto	u597
  1402     0789  0BF9               	decfsz	??_main,f
  1403     078A  2F87               	goto	u597
  1404     078B  0BFA               	decfsz	??_main+1,f
  1405     078C  2F87               	goto	u597
  1406     078D                     l1239:
  1407                           
  1408                           ;main.c: 69:                     contador = contador - 1;
  1409     078D  087B               	movf	_contador,w
  1410     078E  3EFF               	addlw	255
  1411     078F  00FB               	movwf	_contador
  1412     0790  30FF               	movlw	255
  1413     0791  3D7C               	addwfc	_contador+1,w
  1414     0792  00FC               	movwf	_contador+1
  1415     0793  2F0D               	goto	l1215
  1416     0794                     l54:	
  1417                           ;main.c: 77:             case 2: direccion = 1;
  1418                           
  1419     0794  01FD               	clrf	_direccion
  1420     0795  0AFD               	incf	_direccion,f
  1421     0796                     l1251:
  1422                           
  1423                           ;main.c: 78:                     if(contador == 99){
  1424     0796  3063               	movlw	99
  1425     0797  067B               	xorwf	_contador,w
  1426     0798  047C               	iorwf	_contador+1,w
  1427     0799  1D03               	btfss	3,2
  1428     079A  2F9C               	goto	u541
  1429     079B  2F9D               	goto	u540
  1430     079C                     u541:
  1431     079C  2FD7               	goto	l1265
  1432     079D                     u540:
  1433     079D                     l1253:
  1434                           
  1435                           ;main.c: 79:                         contador = 0;
  1436     079D  01FB               	clrf	_contador
  1437     079E  01FC               	clrf	_contador+1
  1438     079F                     l1255:
  1439                           
  1440                           ;main.c: 80:                         dig1 = contador / 10;
  1441     079F  300A               	movlw	10
  1442     07A0  00F0               	movwf	___awdiv@divisor
  1443     07A1  3000               	movlw	0
  1444     07A2  00F1               	movwf	___awdiv@divisor+1
  1445     07A3  3000               	movlw	0
  1446     07A4  00F2               	movwf	___awdiv@dividend
  1447     07A5  00F3               	movwf	___awdiv@dividend+1
  1448     07A6  3184  24BB  3186   	fcall	___awdiv
  1449     07A9  0871               	movf	?___awdiv+1,w
  1450     07AA  0020               	movlb	0	; select bank0
  1451     07AB  00A3               	movwf	_dig1+1
  1452     07AC  0870               	movf	?___awdiv,w
  1453     07AD  00A2               	movwf	_dig1
  1454     07AE                     l1257:
  1455                           
  1456                           ;main.c: 81:                         dig2 = contador % 10;
  1457     07AE  300A               	movlw	10
  1458     07AF  00F0               	movwf	___awmod@divisor
  1459     07B0  3000               	movlw	0
  1460     07B1  00F1               	movwf	___awmod@divisor+1
  1461     07B2  3000               	movlw	0
  1462     07B3  00F2               	movwf	___awmod@dividend
  1463     07B4  00F3               	movwf	___awmod@dividend+1
  1464     07B5  3184  2468  3186   	fcall	___awmod
  1465     07B8  0871               	movf	?___awmod+1,w
  1466     07B9  0020               	movlb	0	; select bank0
  1467     07BA  00A1               	movwf	_dig2+1
  1468     07BB  0870               	movf	?___awmod,w
  1469     07BC  00A0               	movwf	_dig2
  1470     07BD                     l1259:
  1471                           
  1472                           ;main.c: 83:                         display_cc1(dig1);
  1473     07BD  0823               	movf	_dig1+1,w
  1474     07BE  00F1               	movwf	display_cc1@dig+1
  1475     07BF  0822               	movf	_dig1,w
  1476     07C0  00F0               	movwf	display_cc1@dig
  1477     07C1  3185  251A  3186   	fcall	_display_cc1
  1478     07C4                     l1261:
  1479                           
  1480                           ;main.c: 84:                         display_cc2(dig2);
  1481     07C4  0020               	movlb	0	; select bank0
  1482     07C5  0821               	movf	_dig2+1,w
  1483     07C6  00F1               	movwf	display_cc2@dig2+1
  1484     07C7  0820               	movf	_dig2,w
  1485     07C8  00F0               	movwf	display_cc2@dig2
  1486     07C9  3185  259B  3186   	fcall	_display_cc2
  1487     07CC                     l1263:
  1488                           
  1489                           ;main.c: 85:                         _delay((unsigned long)((200)*(20000000/4000.0)));
  1490     07CC  3006               	movlw	6
  1491     07CD  00FA               	movwf	??_main+1
  1492     07CE  3013               	movlw	19
  1493     07CF  00F9               	movwf	??_main
  1494     07D0  30AE               	movlw	174
  1495     07D1                     u607:
  1496     07D1  0B89               	decfsz	9,f
  1497     07D2  2FD1               	goto	u607
  1498     07D3  0BF9               	decfsz	??_main,f
  1499     07D4  2FD1               	goto	u607
  1500     07D5  0BFA               	decfsz	??_main+1,f
  1501     07D6  2FD1               	goto	u607
  1502     07D7                     l1265:
  1503                           
  1504                           ;main.c: 88:                     contador = contador + 1;
  1505     07D7  087B               	movf	_contador,w
  1506     07D8  3E01               	addlw	1
  1507     07D9  00FB               	movwf	_contador
  1508     07DA  3000               	movlw	0
  1509     07DB  3D7C               	addwfc	_contador+1,w
  1510     07DC  00FC               	movwf	_contador+1
  1511     07DD  2F0D               	goto	l1215
  1512     07DE                     l1279:
  1513     07DE  0824               	movf	_numero,w
  1514     07DF  00F9               	movwf	??_main
  1515     07E0  01FA               	clrf	??_main+1
  1516                           
  1517                           ; Switch on 2 bytes has been partitioned into a top level switch of size 1, and 1 sub-sw
      +                          itches
  1518                           ; Switch size 1, requested type "simple"
  1519                           ; Number of cases is 1, Range of values is 0 to 0
  1520                           ; switch strategies available:
  1521                           ; Name         Instructions Cycles
  1522                           ; simple_byte            4     3 (average)
  1523                           ; direct_byte            8     6 (fixed)
  1524                           ; jumptable            260     6 (fixed)
  1525                           ;	Chosen strategy is simple_byte
  1526     07E1  087A               	movf	??_main+1,w
  1527     07E2  3A00               	xorlw	0	; case 0
  1528     07E3  1903               	skipnz
  1529     07E4  2FE6               	goto	l1357
  1530     07E5  2E26               	goto	l40
  1531     07E6                     l1357:
  1532                           
  1533                           ; Switch size 1, requested type "simple"
  1534                           ; Number of cases is 4, Range of values is 0 to 3
  1535                           ; switch strategies available:
  1536                           ; Name         Instructions Cycles
  1537                           ; simple_byte           13     7 (average)
  1538                           ; direct_byte           14     6 (fixed)
  1539                           ; jumptable            260     6 (fixed)
  1540                           ;	Chosen strategy is simple_byte
  1541     07E6  0879               	movf	??_main,w
  1542     07E7  3A00               	xorlw	0	; case 0
  1543     07E8  1903               	skipnz
  1544     07E9  2E2B               	goto	l1167
  1545     07EA  3A01               	xorlw	1	; case 1
  1546     07EB  1903               	skipnz
  1547     07EC  2F48               	goto	l1225
  1548     07ED  3A03               	xorlw	3	; case 2
  1549     07EE  1903               	skipnz
  1550     07EF  2F94               	goto	l54
  1551     07F0  3A01               	xorlw	1	; case 3
  1552     07F1  1903               	skipnz
  1553     07F2  2E26               	goto	l40
  1554     07F3  2E26               	goto	l40
  1555     07F4  3180  2802         	ljmp	start
  1556     07F6                     __end_of_main:
  1557                           
  1558                           	psect	text1
  1559     045B                     __ptext1:	
  1560 ;; *************** function _init_punto7 *****************
  1561 ;; Defined at:
  1562 ;;		line 30 in file "config.c"
  1563 ;; Parameters:    Size  Location     Type
  1564 ;;		None
  1565 ;; Auto vars:     Size  Location     Type
  1566 ;;		None
  1567 ;; Return value:  Size  Location     Type
  1568 ;;                  1    wreg      void 
  1569 ;; Registers used:
  1570 ;;		wreg, status,2
  1571 ;; Tracked objects:
  1572 ;;		On entry : 0/0
  1573 ;;		On exit  : 0/0
  1574 ;;		Unchanged: 0/0
  1575 ;; Data sizes:     COMMON   BANK0   BANK1   BANK2   BANK3   BANK4   BANK5   BANK6   BANK7   BANK8   BANK9  BANK10  BANK1
      +1  BANK12
  1576 ;;      Params:         0       0       0       0       0       0       0       0       0       0       0       0       
      +0       0
  1577 ;;      Locals:         0       0       0       0       0       0       0       0       0       0       0       0       
      +0       0
  1578 ;;      Temps:          0       0       0       0       0       0       0       0       0       0       0       0       
      +0       0
  1579 ;;      Totals:         0       0       0       0       0       0       0       0       0       0       0       0       
      +0       0
  1580 ;;Total ram usage:        0 bytes
  1581 ;; Hardware stack levels used: 1
  1582 ;; This function calls:
  1583 ;;		Nothing
  1584 ;; This function is called by:
  1585 ;;		_main
  1586 ;; This function uses a non-reentrant model
  1587 ;;
  1588                           
  1589     045B                     _init_punto7:	
  1590                           ;psect for function _init_punto7
  1591                           
  1592     045B                     l1045:	
  1593                           ;incstack = 0
  1594                           ; Regs used in _init_punto7: [wreg+status,2]
  1595                           
  1596                           
  1597                           ;config.c: 31:     OSCCON = 0x38;
  1598     045B  3038               	movlw	56
  1599     045C  0021               	movlb	1	; select bank1
  1600     045D  0099               	movwf	25	;volatile
  1601     045E                     l1047:
  1602                           
  1603                           ;config.c: 32:     OSCTUNE = 0x00;
  1604     045E  0198               	clrf	24	;volatile
  1605     045F                     l1049:
  1606                           
  1607                           ;config.c: 33:     BORCON = 0x00;
  1608     045F  0022               	movlb	2	; select bank2
  1609     0460  0196               	clrf	22	;volatile
  1610                           
  1611                           ;config.c: 35:     PORTB = 0x03;
  1612     0461  3003               	movlw	3
  1613     0462  0020               	movlb	0	; select bank0
  1614     0463  008D               	movwf	13	;volatile
  1615     0464                     l1051:
  1616                           
  1617                           ;config.c: 37:     ANSELBbits.ANSB0 = 0;
  1618     0464  0023               	movlb	3	; select bank3
  1619     0465  100D               	bcf	13,0	;volatile
  1620     0466                     l1053:
  1621                           
  1622                           ;config.c: 38:     ANSELBbits.ANSB1 = 0;
  1623     0466  108D               	bcf	13,1	;volatile
  1624     0467                     l13:
  1625     0467  0008               	return
  1626     0468                     __end_of_init_punto7:
  1627                           
  1628                           	psect	text2
  1629     0457                     __ptext2:	
  1630 ;; *************** function _display_init *****************
  1631 ;; Defined at:
  1632 ;;		line 6 in file "display7seg.c"
  1633 ;; Parameters:    Size  Location     Type
  1634 ;;		None
  1635 ;; Auto vars:     Size  Location     Type
  1636 ;;		None
  1637 ;; Return value:  Size  Location     Type
  1638 ;;                  1    wreg      void 
  1639 ;; Registers used:
  1640 ;;		status,2
  1641 ;; Tracked objects:
  1642 ;;		On entry : 0/0
  1643 ;;		On exit  : 0/0
  1644 ;;		Unchanged: 0/0
  1645 ;; Data sizes:     COMMON   BANK0   BANK1   BANK2   BANK3   BANK4   BANK5   BANK6   BANK7   BANK8   BANK9  BANK10  BANK1
      +1  BANK12
  1646 ;;      Params:         0       0       0       0       0       0       0       0       0       0       0       0       
      +0       0
  1647 ;;      Locals:         0       0       0       0       0       0       0       0       0       0       0       0       
      +0       0
  1648 ;;      Temps:          0       0       0       0       0       0       0       0       0       0       0       0       
      +0       0
  1649 ;;      Totals:         0       0       0       0       0       0       0       0       0       0       0       0       
      +0       0
  1650 ;;Total ram usage:        0 bytes
  1651 ;; Hardware stack levels used: 1
  1652 ;; This function calls:
  1653 ;;		Nothing
  1654 ;; This function is called by:
  1655 ;;		_main
  1656 ;; This function uses a non-reentrant model
  1657 ;;
  1658                           
  1659     0457                     _display_init:	
  1660                           ;psect for function _display_init
  1661                           
  1662     0457                     l1055:	
  1663                           ;incstack = 0
  1664                           ; Regs used in _display_init: [status,2]
  1665                           
  1666                           
  1667                           ;display7seg.c: 7:     TRISC = 0x00;
  1668     0457  0021               	movlb	1	; select bank1
  1669     0458  018E               	clrf	14	;volatile
  1670                           
  1671                           ;display7seg.c: 8:     TRISD = 0x00;
  1672     0459  018F               	clrf	15	;volatile
  1673     045A                     l70:
  1674     045A  0008               	return
  1675     045B                     __end_of_display_init:
  1676                           
  1677                           	psect	text3
  1678     059B                     __ptext3:	
  1679 ;; *************** function _display_cc2 *****************
  1680 ;; Defined at:
  1681 ;;		line 198 in file "display7seg.c"
  1682 ;; Parameters:    Size  Location     Type
  1683 ;;  dig2            2    0[COMMON] int 
  1684 ;; Auto vars:     Size  Location     Type
  1685 ;;		None
  1686 ;; Return value:  Size  Location     Type
  1687 ;;                  1    wreg      void 
  1688 ;; Registers used:
  1689 ;;		wreg, fsr0l, fsr0h, status,2, status,0
  1690 ;; Tracked objects:
  1691 ;;		On entry : 0/0
  1692 ;;		On exit  : 0/0
  1693 ;;		Unchanged: 0/0
  1694 ;; Data sizes:     COMMON   BANK0   BANK1   BANK2   BANK3   BANK4   BANK5   BANK6   BANK7   BANK8   BANK9  BANK10  BANK1
      +1  BANK12
  1695 ;;      Params:         2       0       0       0       0       0       0       0       0       0       0       0       
      +0       0
  1696 ;;      Locals:         0       0       0       0       0       0       0       0       0       0       0       0       
      +0       0
  1697 ;;      Temps:          0       0       0       0       0       0       0       0       0       0       0       0       
      +0       0
  1698 ;;      Totals:         2       0       0       0       0       0       0       0       0       0       0       0       
      +0       0
  1699 ;;Total ram usage:        2 bytes
  1700 ;; Hardware stack levels used: 1
  1701 ;; This function calls:
  1702 ;;		Nothing
  1703 ;; This function is called by:
  1704 ;;		_main
  1705 ;; This function uses a non-reentrant model
  1706 ;;
  1707                           
  1708     059B                     _display_cc2:	
  1709                           ;psect for function _display_cc2
  1710                           
  1711     059B                     l1067:	
  1712                           ;incstack = 0
  1713                           ; Regs used in _display_cc2: [wreg-fsr0h+status,2+status,0]
  1714                           
  1715                           
  1716                           ;display7seg.c: 199:     switch(dig2){
  1717     059B  2DF6               	goto	l1071
  1718     059C                     l104:	
  1719                           ;display7seg.c: 200:         case 0: LATDbits.LATD0 = 1;
  1720                           
  1721     059C  0022               	movlb	2	; select bank2
  1722     059D  140F               	bsf	15,0	;volatile
  1723                           
  1724                           ;display7seg.c: 201:                 LATDbits.LATD1 = 1;
  1725     059E  148F               	bsf	15,1	;volatile
  1726                           
  1727                           ;display7seg.c: 202:                 LATDbits.LATD2 = 1;
  1728     059F  150F               	bsf	15,2	;volatile
  1729                           
  1730                           ;display7seg.c: 203:                 LATDbits.LATD3 = 1;
  1731     05A0  158F               	bsf	15,3	;volatile
  1732                           
  1733                           ;display7seg.c: 204:                 LATDbits.LATD4 = 1;
  1734     05A1  160F               	bsf	15,4	;volatile
  1735                           
  1736                           ;display7seg.c: 205:                 LATDbits.LATD5 = 1;
  1737     05A2  168F               	bsf	15,5	;volatile
  1738                           
  1739                           ;display7seg.c: 206:                 LATDbits.LATD6 = 0;
  1740     05A3  130F               	bcf	15,6	;volatile
  1741                           
  1742                           ;display7seg.c: 207:                 break;
  1743     05A4  2E1B               	goto	l115
  1744     05A5                     l106:	
  1745                           ;display7seg.c: 209:         case 1: LATDbits.LATD0 = 0;
  1746                           
  1747     05A5  0022               	movlb	2	; select bank2
  1748     05A6  100F               	bcf	15,0	;volatile
  1749                           
  1750                           ;display7seg.c: 210:                 LATDbits.LATD1 = 1;
  1751     05A7  148F               	bsf	15,1	;volatile
  1752                           
  1753                           ;display7seg.c: 211:                 LATDbits.LATD2 = 1;
  1754     05A8  150F               	bsf	15,2	;volatile
  1755                           
  1756                           ;display7seg.c: 212:                 LATDbits.LATD3 = 0;
  1757     05A9  118F               	bcf	15,3	;volatile
  1758                           
  1759                           ;display7seg.c: 213:                 LATDbits.LATD4 = 0;
  1760     05AA  120F               	bcf	15,4	;volatile
  1761                           
  1762                           ;display7seg.c: 214:                 LATDbits.LATD5 = 0;
  1763     05AB  128F               	bcf	15,5	;volatile
  1764                           
  1765                           ;display7seg.c: 215:                 LATDbits.LATD6 = 0;
  1766     05AC  130F               	bcf	15,6	;volatile
  1767                           
  1768                           ;display7seg.c: 216:                 break;
  1769     05AD  2E1B               	goto	l115
  1770     05AE                     l107:	
  1771                           ;display7seg.c: 218:         case 2: LATDbits.LATD0 = 1;
  1772                           
  1773     05AE  0022               	movlb	2	; select bank2
  1774     05AF  140F               	bsf	15,0	;volatile
  1775                           
  1776                           ;display7seg.c: 219:                 LATDbits.LATD1 = 1;
  1777     05B0  148F               	bsf	15,1	;volatile
  1778                           
  1779                           ;display7seg.c: 220:                 LATDbits.LATD2 = 0;
  1780     05B1  110F               	bcf	15,2	;volatile
  1781                           
  1782                           ;display7seg.c: 221:                 LATDbits.LATD3 = 1;
  1783     05B2  158F               	bsf	15,3	;volatile
  1784                           
  1785                           ;display7seg.c: 222:                 LATDbits.LATD4 = 1;
  1786     05B3  160F               	bsf	15,4	;volatile
  1787                           
  1788                           ;display7seg.c: 223:                 LATDbits.LATD5 = 0;
  1789     05B4  128F               	bcf	15,5	;volatile
  1790                           
  1791                           ;display7seg.c: 224:                 LATDbits.LATD6 = 1;
  1792     05B5  170F               	bsf	15,6	;volatile
  1793                           
  1794                           ;display7seg.c: 225:                 break;
  1795     05B6  2E1B               	goto	l115
  1796     05B7                     l108:	
  1797                           ;display7seg.c: 227:         case 3: LATDbits.LATD0 = 1;
  1798                           
  1799     05B7  0022               	movlb	2	; select bank2
  1800     05B8  140F               	bsf	15,0	;volatile
  1801                           
  1802                           ;display7seg.c: 228:                 LATDbits.LATD1 = 1;
  1803     05B9  148F               	bsf	15,1	;volatile
  1804                           
  1805                           ;display7seg.c: 229:                 LATDbits.LATD2 = 1;
  1806     05BA  150F               	bsf	15,2	;volatile
  1807                           
  1808                           ;display7seg.c: 230:                 LATDbits.LATD3 = 1;
  1809     05BB  158F               	bsf	15,3	;volatile
  1810                           
  1811                           ;display7seg.c: 231:                 LATDbits.LATD4 = 0;
  1812     05BC  120F               	bcf	15,4	;volatile
  1813                           
  1814                           ;display7seg.c: 232:                 LATDbits.LATD5 = 0;
  1815     05BD  128F               	bcf	15,5	;volatile
  1816                           
  1817                           ;display7seg.c: 233:                 LATDbits.LATD6 = 1;
  1818     05BE  170F               	bsf	15,6	;volatile
  1819                           
  1820                           ;display7seg.c: 234:                 break;
  1821     05BF  2E1B               	goto	l115
  1822     05C0                     l109:	
  1823                           ;display7seg.c: 236:         case 4: LATDbits.LATD0 = 0;
  1824                           
  1825     05C0  0022               	movlb	2	; select bank2
  1826     05C1  100F               	bcf	15,0	;volatile
  1827                           
  1828                           ;display7seg.c: 237:                 LATDbits.LATD1 = 1;
  1829     05C2  148F               	bsf	15,1	;volatile
  1830                           
  1831                           ;display7seg.c: 238:                 LATDbits.LATD2 = 1;
  1832     05C3  150F               	bsf	15,2	;volatile
  1833                           
  1834                           ;display7seg.c: 239:                 LATDbits.LATD3 = 0;
  1835     05C4  118F               	bcf	15,3	;volatile
  1836                           
  1837                           ;display7seg.c: 240:                 LATDbits.LATD4 = 0;
  1838     05C5  120F               	bcf	15,4	;volatile
  1839                           
  1840                           ;display7seg.c: 241:                 LATDbits.LATD5 = 1;
  1841     05C6  168F               	bsf	15,5	;volatile
  1842                           
  1843                           ;display7seg.c: 242:                 LATDbits.LATD6 = 1;
  1844     05C7  170F               	bsf	15,6	;volatile
  1845                           
  1846                           ;display7seg.c: 243:                 break;
  1847     05C8  2E1B               	goto	l115
  1848     05C9                     l110:	
  1849                           ;display7seg.c: 245:         case 5: LATDbits.LATD0 = 1;
  1850                           
  1851     05C9  0022               	movlb	2	; select bank2
  1852     05CA  140F               	bsf	15,0	;volatile
  1853                           
  1854                           ;display7seg.c: 246:                 LATDbits.LATD1 = 0;
  1855     05CB  108F               	bcf	15,1	;volatile
  1856                           
  1857                           ;display7seg.c: 247:                 LATDbits.LATD2 = 1;
  1858     05CC  150F               	bsf	15,2	;volatile
  1859                           
  1860                           ;display7seg.c: 248:                 LATDbits.LATD3 = 1;
  1861     05CD  158F               	bsf	15,3	;volatile
  1862                           
  1863                           ;display7seg.c: 249:                 LATDbits.LATD4 = 0;
  1864     05CE  120F               	bcf	15,4	;volatile
  1865                           
  1866                           ;display7seg.c: 250:                 LATDbits.LATD5 = 1;
  1867     05CF  168F               	bsf	15,5	;volatile
  1868                           
  1869                           ;display7seg.c: 251:                 LATDbits.LATD6 = 1;
  1870     05D0  170F               	bsf	15,6	;volatile
  1871                           
  1872                           ;display7seg.c: 252:                 break;
  1873     05D1  2E1B               	goto	l115
  1874     05D2                     l111:	
  1875                           ;display7seg.c: 254:         case 6: LATDbits.LATD0 = 1;
  1876                           
  1877     05D2  0022               	movlb	2	; select bank2
  1878     05D3  140F               	bsf	15,0	;volatile
  1879                           
  1880                           ;display7seg.c: 255:                 LATDbits.LATD1 = 0;
  1881     05D4  108F               	bcf	15,1	;volatile
  1882                           
  1883                           ;display7seg.c: 256:                 LATDbits.LATD2 = 1;
  1884     05D5  150F               	bsf	15,2	;volatile
  1885                           
  1886                           ;display7seg.c: 257:                 LATDbits.LATD3 = 1;
  1887     05D6  158F               	bsf	15,3	;volatile
  1888                           
  1889                           ;display7seg.c: 258:                 LATDbits.LATD4= 1;
  1890     05D7  160F               	bsf	15,4	;volatile
  1891                           
  1892                           ;display7seg.c: 259:                 LATDbits.LATD5 = 1;
  1893     05D8  168F               	bsf	15,5	;volatile
  1894                           
  1895                           ;display7seg.c: 260:                 LATDbits.LATD6= 1;
  1896     05D9  170F               	bsf	15,6	;volatile
  1897                           
  1898                           ;display7seg.c: 261:                 break;
  1899     05DA  2E1B               	goto	l115
  1900     05DB                     l112:	
  1901                           ;display7seg.c: 263:         case 7: LATDbits.LATD0 = 1;
  1902                           
  1903     05DB  0022               	movlb	2	; select bank2
  1904     05DC  140F               	bsf	15,0	;volatile
  1905                           
  1906                           ;display7seg.c: 264:                 LATDbits.LATD1 = 1;
  1907     05DD  148F               	bsf	15,1	;volatile
  1908                           
  1909                           ;display7seg.c: 265:                 LATDbits.LATD2 = 1;
  1910     05DE  150F               	bsf	15,2	;volatile
  1911                           
  1912                           ;display7seg.c: 266:                 LATDbits.LATD3 = 0;
  1913     05DF  118F               	bcf	15,3	;volatile
  1914                           
  1915                           ;display7seg.c: 267:                 LATDbits.LATD4 = 0;
  1916     05E0  120F               	bcf	15,4	;volatile
  1917                           
  1918                           ;display7seg.c: 268:                 LATDbits.LATD5 = 1;
  1919     05E1  168F               	bsf	15,5	;volatile
  1920                           
  1921                           ;display7seg.c: 269:                 LATDbits.LATD6 = 0;
  1922     05E2  130F               	bcf	15,6	;volatile
  1923                           
  1924                           ;display7seg.c: 270:                 break;
  1925     05E3  2E1B               	goto	l115
  1926     05E4                     l113:	
  1927                           ;display7seg.c: 272:         case 8: LATDbits.LATD0 = 1;
  1928                           
  1929     05E4  0022               	movlb	2	; select bank2
  1930     05E5  140F               	bsf	15,0	;volatile
  1931                           
  1932                           ;display7seg.c: 273:                 LATDbits.LATD1 = 1;
  1933     05E6  148F               	bsf	15,1	;volatile
  1934                           
  1935                           ;display7seg.c: 274:                 LATDbits.LATD2 = 1;
  1936     05E7  150F               	bsf	15,2	;volatile
  1937                           
  1938                           ;display7seg.c: 275:                 LATDbits.LATD3 = 1;
  1939     05E8  158F               	bsf	15,3	;volatile
  1940                           
  1941                           ;display7seg.c: 276:                 LATDbits.LATD4 = 1;
  1942     05E9  160F               	bsf	15,4	;volatile
  1943                           
  1944                           ;display7seg.c: 277:                 LATDbits.LATD5 = 1;
  1945     05EA  168F               	bsf	15,5	;volatile
  1946                           
  1947                           ;display7seg.c: 278:                 LATDbits.LATD6 = 1;
  1948     05EB  170F               	bsf	15,6	;volatile
  1949                           
  1950                           ;display7seg.c: 279:                 break;
  1951     05EC  2E1B               	goto	l115
  1952     05ED                     l114:	
  1953                           ;display7seg.c: 281:         case 9: LATDbits.LATD0 = 1;
  1954                           
  1955     05ED  0022               	movlb	2	; select bank2
  1956     05EE  140F               	bsf	15,0	;volatile
  1957                           
  1958                           ;display7seg.c: 282:                 LATDbits.LATD1 = 1;
  1959     05EF  148F               	bsf	15,1	;volatile
  1960                           
  1961                           ;display7seg.c: 283:                 LATDbits.LATD2 = 1;
  1962     05F0  150F               	bsf	15,2	;volatile
  1963                           
  1964                           ;display7seg.c: 284:                 LATDbits.LATD3 = 1;
  1965     05F1  158F               	bsf	15,3	;volatile
  1966                           
  1967                           ;display7seg.c: 285:                 LATDbits.LATD4 = 0;
  1968     05F2  120F               	bcf	15,4	;volatile
  1969                           
  1970                           ;display7seg.c: 286:                 LATDbits.LATD5 = 1;
  1971     05F3  168F               	bsf	15,5	;volatile
  1972                           
  1973                           ;display7seg.c: 287:                 LATDbits.LATD6 = 1;
  1974     05F4  170F               	bsf	15,6	;volatile
  1975                           
  1976                           ;display7seg.c: 288:                 break;
  1977     05F5  2E1B               	goto	l115
  1978     05F6                     l1071:
  1979                           
  1980                           ; Switch on 2 bytes has been partitioned into a top level switch of size 1, and 1 sub-sw
      +                          itches
  1981                           ; Switch size 1, requested type "simple"
  1982                           ; Number of cases is 1, Range of values is 0 to 0
  1983                           ; switch strategies available:
  1984                           ; Name         Instructions Cycles
  1985                           ; simple_byte            4     3 (average)
  1986                           ; direct_byte            8     6 (fixed)
  1987                           ; jumptable            260     6 (fixed)
  1988                           ;	Chosen strategy is simple_byte
  1989     05F6  0871               	movf	display_cc2@dig2+1,w
  1990     05F7  3A00               	xorlw	0	; case 0
  1991     05F8  1903               	skipnz
  1992     05F9  2DFB               	goto	l1359
  1993     05FA  2E1B               	goto	l115
  1994     05FB                     l1359:
  1995                           
  1996                           ; Switch size 1, requested type "simple"
  1997                           ; Number of cases is 10, Range of values is 0 to 9
  1998                           ; switch strategies available:
  1999                           ; Name         Instructions Cycles
  2000                           ; direct_byte           26     6 (fixed)
  2001                           ; simple_byte           31    16 (average)
  2002                           ; jumptable            260     6 (fixed)
  2003                           ;	Chosen strategy is simple_byte
  2004     05FB  0870               	movf	display_cc2@dig2,w
  2005     05FC  3A00               	xorlw	0	; case 0
  2006     05FD  1903               	skipnz
  2007     05FE  2D9C               	goto	l104
  2008     05FF  3A01               	xorlw	1	; case 1
  2009     0600  1903               	skipnz
  2010     0601  2DA5               	goto	l106
  2011     0602  3A03               	xorlw	3	; case 2
  2012     0603  1903               	skipnz
  2013     0604  2DAE               	goto	l107
  2014     0605  3A01               	xorlw	1	; case 3
  2015     0606  1903               	skipnz
  2016     0607  2DB7               	goto	l108
  2017     0608  3A07               	xorlw	7	; case 4
  2018     0609  1903               	skipnz
  2019     060A  2DC0               	goto	l109
  2020     060B  3A01               	xorlw	1	; case 5
  2021     060C  1903               	skipnz
  2022     060D  2DC9               	goto	l110
  2023     060E  3A03               	xorlw	3	; case 6
  2024     060F  1903               	skipnz
  2025     0610  2DD2               	goto	l111
  2026     0611  3A01               	xorlw	1	; case 7
  2027     0612  1903               	skipnz
  2028     0613  2DDB               	goto	l112
  2029     0614  3A0F               	xorlw	15	; case 8
  2030     0615  1903               	skipnz
  2031     0616  2DE4               	goto	l113
  2032     0617  3A01               	xorlw	1	; case 9
  2033     0618  1903               	skipnz
  2034     0619  2DED               	goto	l114
  2035     061A  2E1B               	goto	l115
  2036     061B                     l115:
  2037     061B  0008               	return
  2038     061C                     __end_of_display_cc2:
  2039                           
  2040                           	psect	text4
  2041     051A                     __ptext4:	
  2042 ;; *************** function _display_cc1 *****************
  2043 ;; Defined at:
  2044 ;;		line 104 in file "display7seg.c"
  2045 ;; Parameters:    Size  Location     Type
  2046 ;;  dig             2    0[COMMON] int 
  2047 ;; Auto vars:     Size  Location     Type
  2048 ;;		None
  2049 ;; Return value:  Size  Location     Type
  2050 ;;                  1    wreg      void 
  2051 ;; Registers used:
  2052 ;;		wreg, fsr0l, fsr0h, status,2, status,0
  2053 ;; Tracked objects:
  2054 ;;		On entry : 0/0
  2055 ;;		On exit  : 0/0
  2056 ;;		Unchanged: 0/0
  2057 ;; Data sizes:     COMMON   BANK0   BANK1   BANK2   BANK3   BANK4   BANK5   BANK6   BANK7   BANK8   BANK9  BANK10  BANK1
      +1  BANK12
  2058 ;;      Params:         2       0       0       0       0       0       0       0       0       0       0       0       
      +0       0
  2059 ;;      Locals:         0       0       0       0       0       0       0       0       0       0       0       0       
      +0       0
  2060 ;;      Temps:          0       0       0       0       0       0       0       0       0       0       0       0       
      +0       0
  2061 ;;      Totals:         2       0       0       0       0       0       0       0       0       0       0       0       
      +0       0
  2062 ;;Total ram usage:        2 bytes
  2063 ;; Hardware stack levels used: 1
  2064 ;; This function calls:
  2065 ;;		Nothing
  2066 ;; This function is called by:
  2067 ;;		_main
  2068 ;; This function uses a non-reentrant model
  2069 ;;
  2070                           
  2071     051A                     _display_cc1:	
  2072                           ;psect for function _display_cc1
  2073                           
  2074     051A                     l1057:	
  2075                           ;incstack = 0
  2076                           ; Regs used in _display_cc1: [wreg-fsr0h+status,2+status,0]
  2077                           
  2078                           
  2079                           ;display7seg.c: 105:     switch(dig){
  2080     051A  2D75               	goto	l1061
  2081     051B                     l89:	
  2082                           ;display7seg.c: 106:         case 0: LATCbits.LATC0 = 1;
  2083                           
  2084     051B  0022               	movlb	2	; select bank2
  2085     051C  140E               	bsf	14,0	;volatile
  2086                           
  2087                           ;display7seg.c: 107:                 LATCbits.LATC1 = 1;
  2088     051D  148E               	bsf	14,1	;volatile
  2089                           
  2090                           ;display7seg.c: 108:                 LATCbits.LATC2 = 1;
  2091     051E  150E               	bsf	14,2	;volatile
  2092                           
  2093                           ;display7seg.c: 109:                 LATCbits.LATC3 = 1;
  2094     051F  158E               	bsf	14,3	;volatile
  2095                           
  2096                           ;display7seg.c: 110:                 LATCbits.LATC4 = 1;
  2097     0520  160E               	bsf	14,4	;volatile
  2098                           
  2099                           ;display7seg.c: 111:                 LATCbits.LATC5 = 1;
  2100     0521  168E               	bsf	14,5	;volatile
  2101                           
  2102                           ;display7seg.c: 112:                 LATCbits.LATC6 = 0;
  2103     0522  130E               	bcf	14,6	;volatile
  2104                           
  2105                           ;display7seg.c: 113:                 break;
  2106     0523  2D9A               	goto	l100
  2107     0524                     l91:	
  2108                           ;display7seg.c: 115:         case 1: LATCbits.LATC0 = 0;
  2109                           
  2110     0524  0022               	movlb	2	; select bank2
  2111     0525  100E               	bcf	14,0	;volatile
  2112                           
  2113                           ;display7seg.c: 116:                 LATCbits.LATC1 = 1;
  2114     0526  148E               	bsf	14,1	;volatile
  2115                           
  2116                           ;display7seg.c: 117:                 LATCbits.LATC2 = 1;
  2117     0527  150E               	bsf	14,2	;volatile
  2118                           
  2119                           ;display7seg.c: 118:                 LATCbits.LATC3 = 0;
  2120     0528  118E               	bcf	14,3	;volatile
  2121                           
  2122                           ;display7seg.c: 119:                 LATCbits.LATC4 = 0;
  2123     0529  120E               	bcf	14,4	;volatile
  2124                           
  2125                           ;display7seg.c: 120:                 LATCbits.LATC5 = 0;
  2126     052A  128E               	bcf	14,5	;volatile
  2127                           
  2128                           ;display7seg.c: 121:                 LATCbits.LATC6 = 0;
  2129     052B  130E               	bcf	14,6	;volatile
  2130                           
  2131                           ;display7seg.c: 122:                 break;
  2132     052C  2D9A               	goto	l100
  2133     052D                     l92:	
  2134                           ;display7seg.c: 124:         case 2: LATCbits.LATC0 = 1;
  2135                           
  2136     052D  0022               	movlb	2	; select bank2
  2137     052E  140E               	bsf	14,0	;volatile
  2138                           
  2139                           ;display7seg.c: 125:                 LATCbits.LATC1 = 1;
  2140     052F  148E               	bsf	14,1	;volatile
  2141                           
  2142                           ;display7seg.c: 126:                 LATCbits.LATC2 = 0;
  2143     0530  110E               	bcf	14,2	;volatile
  2144                           
  2145                           ;display7seg.c: 127:                 LATCbits.LATC3 = 1;
  2146     0531  158E               	bsf	14,3	;volatile
  2147                           
  2148                           ;display7seg.c: 128:                 LATCbits.LATC4 = 1;
  2149     0532  160E               	bsf	14,4	;volatile
  2150                           
  2151                           ;display7seg.c: 129:                 LATCbits.LATC5 = 0;
  2152     0533  128E               	bcf	14,5	;volatile
  2153                           
  2154                           ;display7seg.c: 130:                 LATCbits.LATC6 = 1;
  2155     0534  170E               	bsf	14,6	;volatile
  2156                           
  2157                           ;display7seg.c: 131:                 break;
  2158     0535  2D9A               	goto	l100
  2159     0536                     l93:	
  2160                           ;display7seg.c: 133:         case 3: LATCbits.LATC0 = 1;
  2161                           
  2162     0536  0022               	movlb	2	; select bank2
  2163     0537  140E               	bsf	14,0	;volatile
  2164                           
  2165                           ;display7seg.c: 134:                 LATCbits.LATC1 = 1;
  2166     0538  148E               	bsf	14,1	;volatile
  2167                           
  2168                           ;display7seg.c: 135:                 LATCbits.LATC2 = 1;
  2169     0539  150E               	bsf	14,2	;volatile
  2170                           
  2171                           ;display7seg.c: 136:                 LATCbits.LATC3 = 1;
  2172     053A  158E               	bsf	14,3	;volatile
  2173                           
  2174                           ;display7seg.c: 137:                 LATCbits.LATC4 = 0;
  2175     053B  120E               	bcf	14,4	;volatile
  2176                           
  2177                           ;display7seg.c: 138:                 LATCbits.LATC5 = 0;
  2178     053C  128E               	bcf	14,5	;volatile
  2179                           
  2180                           ;display7seg.c: 139:                 LATCbits.LATC6 = 1;
  2181     053D  170E               	bsf	14,6	;volatile
  2182                           
  2183                           ;display7seg.c: 140:                 break;
  2184     053E  2D9A               	goto	l100
  2185     053F                     l94:	
  2186                           ;display7seg.c: 142:         case 4: LATCbits.LATC0 = 0;
  2187                           
  2188     053F  0022               	movlb	2	; select bank2
  2189     0540  100E               	bcf	14,0	;volatile
  2190                           
  2191                           ;display7seg.c: 143:                 LATCbits.LATC1 = 1;
  2192     0541  148E               	bsf	14,1	;volatile
  2193                           
  2194                           ;display7seg.c: 144:                 LATCbits.LATC2 = 1;
  2195     0542  150E               	bsf	14,2	;volatile
  2196                           
  2197                           ;display7seg.c: 145:                 LATCbits.LATC3 = 0;
  2198     0543  118E               	bcf	14,3	;volatile
  2199                           
  2200                           ;display7seg.c: 146:                 LATCbits.LATC4 = 0;
  2201     0544  120E               	bcf	14,4	;volatile
  2202                           
  2203                           ;display7seg.c: 147:                 LATCbits.LATC5 = 1;
  2204     0545  168E               	bsf	14,5	;volatile
  2205                           
  2206                           ;display7seg.c: 148:                 LATCbits.LATC6 = 1;
  2207     0546  170E               	bsf	14,6	;volatile
  2208                           
  2209                           ;display7seg.c: 149:                 break;
  2210     0547  2D9A               	goto	l100
  2211     0548                     l95:	
  2212                           ;display7seg.c: 151:         case 5: LATCbits.LATC0 = 1;
  2213                           
  2214     0548  0022               	movlb	2	; select bank2
  2215     0549  140E               	bsf	14,0	;volatile
  2216                           
  2217                           ;display7seg.c: 152:                 LATCbits.LATC1 = 0;
  2218     054A  108E               	bcf	14,1	;volatile
  2219                           
  2220                           ;display7seg.c: 153:                 LATCbits.LATC2 = 1;
  2221     054B  150E               	bsf	14,2	;volatile
  2222                           
  2223                           ;display7seg.c: 154:                 LATCbits.LATC3 = 1;
  2224     054C  158E               	bsf	14,3	;volatile
  2225                           
  2226                           ;display7seg.c: 155:                 LATCbits.LATC4 = 0;
  2227     054D  120E               	bcf	14,4	;volatile
  2228                           
  2229                           ;display7seg.c: 156:                 LATCbits.LATC5 = 1;
  2230     054E  168E               	bsf	14,5	;volatile
  2231                           
  2232                           ;display7seg.c: 157:                 LATCbits.LATC6 = 1;
  2233     054F  170E               	bsf	14,6	;volatile
  2234                           
  2235                           ;display7seg.c: 158:                 break;
  2236     0550  2D9A               	goto	l100
  2237     0551                     l96:	
  2238                           ;display7seg.c: 160:         case 6: LATCbits.LATC0 = 1;
  2239                           
  2240     0551  0022               	movlb	2	; select bank2
  2241     0552  140E               	bsf	14,0	;volatile
  2242                           
  2243                           ;display7seg.c: 161:                 LATCbits.LATC1 = 0;
  2244     0553  108E               	bcf	14,1	;volatile
  2245                           
  2246                           ;display7seg.c: 162:                 LATCbits.LATC2 = 1;
  2247     0554  150E               	bsf	14,2	;volatile
  2248                           
  2249                           ;display7seg.c: 163:                 LATCbits.LATC3 = 1;
  2250     0555  158E               	bsf	14,3	;volatile
  2251                           
  2252                           ;display7seg.c: 164:                 LATCbits.LATC4= 1;
  2253     0556  160E               	bsf	14,4	;volatile
  2254                           
  2255                           ;display7seg.c: 165:                 LATCbits.LATC5 = 1;
  2256     0557  168E               	bsf	14,5	;volatile
  2257                           
  2258                           ;display7seg.c: 166:                 LATCbits.LATC6= 1;
  2259     0558  170E               	bsf	14,6	;volatile
  2260                           
  2261                           ;display7seg.c: 167:                 break;
  2262     0559  2D9A               	goto	l100
  2263     055A                     l97:	
  2264                           ;display7seg.c: 169:         case 7: LATCbits.LATC0 = 1;
  2265                           
  2266     055A  0022               	movlb	2	; select bank2
  2267     055B  140E               	bsf	14,0	;volatile
  2268                           
  2269                           ;display7seg.c: 170:                 LATCbits.LATC1 = 1;
  2270     055C  148E               	bsf	14,1	;volatile
  2271                           
  2272                           ;display7seg.c: 171:                 LATCbits.LATC2 = 1;
  2273     055D  150E               	bsf	14,2	;volatile
  2274                           
  2275                           ;display7seg.c: 172:                 LATCbits.LATC3 = 0;
  2276     055E  118E               	bcf	14,3	;volatile
  2277                           
  2278                           ;display7seg.c: 173:                 LATCbits.LATC4 = 0;
  2279     055F  120E               	bcf	14,4	;volatile
  2280                           
  2281                           ;display7seg.c: 174:                 LATCbits.LATC5 = 1;
  2282     0560  168E               	bsf	14,5	;volatile
  2283                           
  2284                           ;display7seg.c: 175:                 LATCbits.LATC6 = 0;
  2285     0561  130E               	bcf	14,6	;volatile
  2286                           
  2287                           ;display7seg.c: 176:                 break;
  2288     0562  2D9A               	goto	l100
  2289     0563                     l98:	
  2290                           ;display7seg.c: 178:         case 8: LATCbits.LATC0 = 1;
  2291                           
  2292     0563  0022               	movlb	2	; select bank2
  2293     0564  140E               	bsf	14,0	;volatile
  2294                           
  2295                           ;display7seg.c: 179:                 LATCbits.LATC1 = 1;
  2296     0565  148E               	bsf	14,1	;volatile
  2297                           
  2298                           ;display7seg.c: 180:                 LATCbits.LATC2 = 1;
  2299     0566  150E               	bsf	14,2	;volatile
  2300                           
  2301                           ;display7seg.c: 181:                 LATCbits.LATC3 = 1;
  2302     0567  158E               	bsf	14,3	;volatile
  2303                           
  2304                           ;display7seg.c: 182:                 LATCbits.LATC4 = 1;
  2305     0568  160E               	bsf	14,4	;volatile
  2306                           
  2307                           ;display7seg.c: 183:                 LATCbits.LATC5 = 1;
  2308     0569  168E               	bsf	14,5	;volatile
  2309                           
  2310                           ;display7seg.c: 184:                 LATCbits.LATC6 = 1;
  2311     056A  170E               	bsf	14,6	;volatile
  2312                           
  2313                           ;display7seg.c: 185:                 break;
  2314     056B  2D9A               	goto	l100
  2315     056C                     l99:	
  2316                           ;display7seg.c: 187:         case 9: LATCbits.LATC0 = 1;
  2317                           
  2318     056C  0022               	movlb	2	; select bank2
  2319     056D  140E               	bsf	14,0	;volatile
  2320                           
  2321                           ;display7seg.c: 188:                 LATCbits.LATC1 = 1;
  2322     056E  148E               	bsf	14,1	;volatile
  2323                           
  2324                           ;display7seg.c: 189:                 LATCbits.LATC2 = 1;
  2325     056F  150E               	bsf	14,2	;volatile
  2326                           
  2327                           ;display7seg.c: 190:                 LATCbits.LATC3 = 1;
  2328     0570  158E               	bsf	14,3	;volatile
  2329                           
  2330                           ;display7seg.c: 191:                 LATCbits.LATC4 = 0;
  2331     0571  120E               	bcf	14,4	;volatile
  2332                           
  2333                           ;display7seg.c: 192:                 LATCbits.LATC5 = 1;
  2334     0572  168E               	bsf	14,5	;volatile
  2335                           
  2336                           ;display7seg.c: 193:                 LATCbits.LATC6 = 1;
  2337     0573  170E               	bsf	14,6	;volatile
  2338                           
  2339                           ;display7seg.c: 194:                 break;
  2340     0574  2D9A               	goto	l100
  2341     0575                     l1061:
  2342                           
  2343                           ; Switch on 2 bytes has been partitioned into a top level switch of size 1, and 1 sub-sw
      +                          itches
  2344                           ; Switch size 1, requested type "simple"
  2345                           ; Number of cases is 1, Range of values is 0 to 0
  2346                           ; switch strategies available:
  2347                           ; Name         Instructions Cycles
  2348                           ; simple_byte            4     3 (average)
  2349                           ; direct_byte            8     6 (fixed)
  2350                           ; jumptable            260     6 (fixed)
  2351                           ;	Chosen strategy is simple_byte
  2352     0575  0871               	movf	display_cc1@dig+1,w
  2353     0576  3A00               	xorlw	0	; case 0
  2354     0577  1903               	skipnz
  2355     0578  2D7A               	goto	l1361
  2356     0579  2D9A               	goto	l100
  2357     057A                     l1361:
  2358                           
  2359                           ; Switch size 1, requested type "simple"
  2360                           ; Number of cases is 10, Range of values is 0 to 9
  2361                           ; switch strategies available:
  2362                           ; Name         Instructions Cycles
  2363                           ; direct_byte           26     6 (fixed)
  2364                           ; simple_byte           31    16 (average)
  2365                           ; jumptable            260     6 (fixed)
  2366                           ;	Chosen strategy is simple_byte
  2367     057A  0870               	movf	display_cc1@dig,w
  2368     057B  3A00               	xorlw	0	; case 0
  2369     057C  1903               	skipnz
  2370     057D  2D1B               	goto	l89
  2371     057E  3A01               	xorlw	1	; case 1
  2372     057F  1903               	skipnz
  2373     0580  2D24               	goto	l91
  2374     0581  3A03               	xorlw	3	; case 2
  2375     0582  1903               	skipnz
  2376     0583  2D2D               	goto	l92
  2377     0584  3A01               	xorlw	1	; case 3
  2378     0585  1903               	skipnz
  2379     0586  2D36               	goto	l93
  2380     0587  3A07               	xorlw	7	; case 4
  2381     0588  1903               	skipnz
  2382     0589  2D3F               	goto	l94
  2383     058A  3A01               	xorlw	1	; case 5
  2384     058B  1903               	skipnz
  2385     058C  2D48               	goto	l95
  2386     058D  3A03               	xorlw	3	; case 6
  2387     058E  1903               	skipnz
  2388     058F  2D51               	goto	l96
  2389     0590  3A01               	xorlw	1	; case 7
  2390     0591  1903               	skipnz
  2391     0592  2D5A               	goto	l97
  2392     0593  3A0F               	xorlw	15	; case 8
  2393     0594  1903               	skipnz
  2394     0595  2D63               	goto	l98
  2395     0596  3A01               	xorlw	1	; case 9
  2396     0597  1903               	skipnz
  2397     0598  2D6C               	goto	l99
  2398     0599  2D9A               	goto	l100
  2399     059A                     l100:
  2400     059A  0008               	return
  2401     059B                     __end_of_display_cc1:
  2402                           
  2403                           	psect	text5
  2404     0468                     __ptext5:	
  2405 ;; *************** function ___awmod *****************
  2406 ;; Defined at:
  2407 ;;		line 5 in file "C:\Program Files\Microchip\xc8\v2.41\pic\sources\c99\common\awmod.c"
  2408 ;; Parameters:    Size  Location     Type
  2409 ;;  divisor         2    0[COMMON] int 
  2410 ;;  dividend        2    2[COMMON] int 
  2411 ;; Auto vars:     Size  Location     Type
  2412 ;;  sign            1    6[COMMON] unsigned char 
  2413 ;;  counter         1    5[COMMON] unsigned char 
  2414 ;; Return value:  Size  Location     Type
  2415 ;;                  2    0[COMMON] int 
  2416 ;; Registers used:
  2417 ;;		wreg, status,2, status,0
  2418 ;; Tracked objects:
  2419 ;;		On entry : 0/0
  2420 ;;		On exit  : 0/0
  2421 ;;		Unchanged: 0/0
  2422 ;; Data sizes:     COMMON   BANK0   BANK1   BANK2   BANK3   BANK4   BANK5   BANK6   BANK7   BANK8   BANK9  BANK10  BANK1
      +1  BANK12
  2423 ;;      Params:         4       0       0       0       0       0       0       0       0       0       0       0       
      +0       0
  2424 ;;      Locals:         2       0       0       0       0       0       0       0       0       0       0       0       
      +0       0
  2425 ;;      Temps:          1       0       0       0       0       0       0       0       0       0       0       0       
      +0       0
  2426 ;;      Totals:         7       0       0       0       0       0       0       0       0       0       0       0       
      +0       0
  2427 ;;Total ram usage:        7 bytes
  2428 ;; Hardware stack levels used: 1
  2429 ;; This function calls:
  2430 ;;		Nothing
  2431 ;; This function is called by:
  2432 ;;		_main
  2433 ;; This function uses a non-reentrant model
  2434 ;;
  2435                           
  2436     0468                     ___awmod:	
  2437                           ;psect for function ___awmod
  2438                           
  2439     0468                     l1121:	
  2440                           ;incstack = 0
  2441                           ; Regs used in ___awmod: [wreg+status,2+status,0]
  2442                           
  2443     0468  01F6               	clrf	___awmod@sign
  2444     0469                     l1123:
  2445     0469  1FF3               	btfss	___awmod@dividend+1,7
  2446     046A  2C6C               	goto	u381
  2447     046B  2C6D               	goto	u380
  2448     046C                     u381:
  2449     046C  2C74               	goto	l1129
  2450     046D                     u380:
  2451     046D                     l1125:
  2452     046D  09F2               	comf	___awmod@dividend,f
  2453     046E  09F3               	comf	___awmod@dividend+1,f
  2454     046F  0AF2               	incf	___awmod@dividend,f
  2455     0470  1903               	skipnz
  2456     0471  0AF3               	incf	___awmod@dividend+1,f
  2457     0472                     l1127:
  2458     0472  01F6               	clrf	___awmod@sign
  2459     0473  0AF6               	incf	___awmod@sign,f
  2460     0474                     l1129:
  2461     0474  1FF1               	btfss	___awmod@divisor+1,7
  2462     0475  2C77               	goto	u391
  2463     0476  2C78               	goto	u390
  2464     0477                     u391:
  2465     0477  2C7D               	goto	l1133
  2466     0478                     u390:
  2467     0478                     l1131:
  2468     0478  09F0               	comf	___awmod@divisor,f
  2469     0479  09F1               	comf	___awmod@divisor+1,f
  2470     047A  0AF0               	incf	___awmod@divisor,f
  2471     047B  1903               	skipnz
  2472     047C  0AF1               	incf	___awmod@divisor+1,f
  2473     047D                     l1133:
  2474     047D  0870               	movf	___awmod@divisor,w
  2475     047E  0471               	iorwf	___awmod@divisor+1,w
  2476     047F  1903               	btfsc	3,2
  2477     0480  2C82               	goto	u401
  2478     0481  2C83               	goto	u400
  2479     0482                     u401:
  2480     0482  2CAC               	goto	l1151
  2481     0483                     u400:
  2482     0483                     l1135:
  2483     0483  01F5               	clrf	___awmod@counter
  2484     0484  0AF5               	incf	___awmod@counter,f
  2485     0485  2C8F               	goto	l1141
  2486     0486                     l1137:
  2487     0486  3001               	movlw	1
  2488     0487                     u415:
  2489     0487  35F0               	lslf	___awmod@divisor,f
  2490     0488  0DF1               	rlf	___awmod@divisor+1,f
  2491     0489  0B89               	decfsz	9,f
  2492     048A  2C87               	goto	u415
  2493     048B                     l1139:
  2494     048B  3001               	movlw	1
  2495     048C  00F4               	movwf	??___awmod
  2496     048D  0874               	movf	??___awmod,w
  2497     048E  07F5               	addwf	___awmod@counter,f
  2498     048F                     l1141:
  2499     048F  1FF1               	btfss	___awmod@divisor+1,7
  2500     0490  2C92               	goto	u421
  2501     0491  2C93               	goto	u420
  2502     0492                     u421:
  2503     0492  2C86               	goto	l1137
  2504     0493                     u420:
  2505     0493                     l1143:
  2506     0493  0871               	movf	___awmod@divisor+1,w
  2507     0494  0273               	subwf	___awmod@dividend+1,w
  2508     0495  1D03               	skipz
  2509     0496  2C99               	goto	u435
  2510     0497  0870               	movf	___awmod@divisor,w
  2511     0498  0272               	subwf	___awmod@dividend,w
  2512     0499                     u435:
  2513     0499  1C03               	skipc
  2514     049A  2C9C               	goto	u431
  2515     049B  2C9D               	goto	u430
  2516     049C                     u431:
  2517     049C  2CA1               	goto	l1147
  2518     049D                     u430:
  2519     049D                     l1145:
  2520     049D  0870               	movf	___awmod@divisor,w
  2521     049E  02F2               	subwf	___awmod@dividend,f
  2522     049F  0871               	movf	___awmod@divisor+1,w
  2523     04A0  3BF3               	subwfb	___awmod@dividend+1,f
  2524     04A1                     l1147:
  2525     04A1  3001               	movlw	1
  2526     04A2                     u445:
  2527     04A2  36F1               	lsrf	___awmod@divisor+1,f
  2528     04A3  0CF0               	rrf	___awmod@divisor,f
  2529     04A4  0B89               	decfsz	9,f
  2530     04A5  2CA2               	goto	u445
  2531     04A6                     l1149:
  2532     04A6  3001               	movlw	1
  2533     04A7  02F5               	subwf	___awmod@counter,f
  2534     04A8  1D03               	btfss	3,2
  2535     04A9  2CAB               	goto	u451
  2536     04AA  2CAC               	goto	u450
  2537     04AB                     u451:
  2538     04AB  2C93               	goto	l1143
  2539     04AC                     u450:
  2540     04AC                     l1151:
  2541     04AC  0876               	movf	___awmod@sign,w
  2542     04AD  1903               	btfsc	3,2
  2543     04AE  2CB0               	goto	u461
  2544     04AF  2CB1               	goto	u460
  2545     04B0                     u461:
  2546     04B0  2CB6               	goto	l1155
  2547     04B1                     u460:
  2548     04B1                     l1153:
  2549     04B1  09F2               	comf	___awmod@dividend,f
  2550     04B2  09F3               	comf	___awmod@dividend+1,f
  2551     04B3  0AF2               	incf	___awmod@dividend,f
  2552     04B4  1903               	skipnz
  2553     04B5  0AF3               	incf	___awmod@dividend+1,f
  2554     04B6                     l1155:
  2555     04B6  0873               	movf	___awmod@dividend+1,w
  2556     04B7  00F1               	movwf	?___awmod+1
  2557     04B8  0872               	movf	___awmod@dividend,w
  2558     04B9  00F0               	movwf	?___awmod
  2559     04BA                     l431:
  2560     04BA  0008               	return
  2561     04BB                     __end_of___awmod:
  2562                           
  2563                           	psect	text6
  2564     04BB                     __ptext6:	
  2565 ;; *************** function ___awdiv *****************
  2566 ;; Defined at:
  2567 ;;		line 5 in file "C:\Program Files\Microchip\xc8\v2.41\pic\sources\c99\common\awdiv.c"
  2568 ;; Parameters:    Size  Location     Type
  2569 ;;  divisor         2    0[COMMON] int 
  2570 ;;  dividend        2    2[COMMON] int 
  2571 ;; Auto vars:     Size  Location     Type
  2572 ;;  quotient        2    7[COMMON] int 
  2573 ;;  sign            1    6[COMMON] unsigned char 
  2574 ;;  counter         1    5[COMMON] unsigned char 
  2575 ;; Return value:  Size  Location     Type
  2576 ;;                  2    0[COMMON] int 
  2577 ;; Registers used:
  2578 ;;		wreg, status,2, status,0
  2579 ;; Tracked objects:
  2580 ;;		On entry : 0/0
  2581 ;;		On exit  : 0/0
  2582 ;;		Unchanged: 0/0
  2583 ;; Data sizes:     COMMON   BANK0   BANK1   BANK2   BANK3   BANK4   BANK5   BANK6   BANK7   BANK8   BANK9  BANK10  BANK1
      +1  BANK12
  2584 ;;      Params:         4       0       0       0       0       0       0       0       0       0       0       0       
      +0       0
  2585 ;;      Locals:         4       0       0       0       0       0       0       0       0       0       0       0       
      +0       0
  2586 ;;      Temps:          1       0       0       0       0       0       0       0       0       0       0       0       
      +0       0
  2587 ;;      Totals:         9       0       0       0       0       0       0       0       0       0       0       0       
      +0       0
  2588 ;;Total ram usage:        9 bytes
  2589 ;; Hardware stack levels used: 1
  2590 ;; This function calls:
  2591 ;;		Nothing
  2592 ;; This function is called by:
  2593 ;;		_main
  2594 ;; This function uses a non-reentrant model
  2595 ;;
  2596                           
  2597     04BB                     ___awdiv:	
  2598                           ;psect for function ___awdiv
  2599                           
  2600     04BB                     l1077:	
  2601                           ;incstack = 0
  2602                           ; Regs used in ___awdiv: [wreg+status,2+status,0]
  2603                           
  2604     04BB  01F6               	clrf	___awdiv@sign
  2605     04BC                     l1079:
  2606     04BC  1FF1               	btfss	___awdiv@divisor+1,7
  2607     04BD  2CBF               	goto	u281
  2608     04BE  2CC0               	goto	u280
  2609     04BF                     u281:
  2610     04BF  2CC7               	goto	l1085
  2611     04C0                     u280:
  2612     04C0                     l1081:
  2613     04C0  09F0               	comf	___awdiv@divisor,f
  2614     04C1  09F1               	comf	___awdiv@divisor+1,f
  2615     04C2  0AF0               	incf	___awdiv@divisor,f
  2616     04C3  1903               	skipnz
  2617     04C4  0AF1               	incf	___awdiv@divisor+1,f
  2618     04C5                     l1083:
  2619     04C5  01F6               	clrf	___awdiv@sign
  2620     04C6  0AF6               	incf	___awdiv@sign,f
  2621     04C7                     l1085:
  2622     04C7  1FF3               	btfss	___awdiv@dividend+1,7
  2623     04C8  2CCA               	goto	u291
  2624     04C9  2CCB               	goto	u290
  2625     04CA                     u291:
  2626     04CA  2CD4               	goto	l1091
  2627     04CB                     u290:
  2628     04CB                     l1087:
  2629     04CB  09F2               	comf	___awdiv@dividend,f
  2630     04CC  09F3               	comf	___awdiv@dividend+1,f
  2631     04CD  0AF2               	incf	___awdiv@dividend,f
  2632     04CE  1903               	skipnz
  2633     04CF  0AF3               	incf	___awdiv@dividend+1,f
  2634     04D0                     l1089:
  2635     04D0  3001               	movlw	1
  2636     04D1  00F4               	movwf	??___awdiv
  2637     04D2  0874               	movf	??___awdiv,w
  2638     04D3  06F6               	xorwf	___awdiv@sign,f
  2639     04D4                     l1091:
  2640     04D4  01F7               	clrf	___awdiv@quotient
  2641     04D5  01F8               	clrf	___awdiv@quotient+1
  2642     04D6                     l1093:
  2643     04D6  0870               	movf	___awdiv@divisor,w
  2644     04D7  0471               	iorwf	___awdiv@divisor+1,w
  2645     04D8  1903               	btfsc	3,2
  2646     04D9  2CDB               	goto	u301
  2647     04DA  2CDC               	goto	u300
  2648     04DB                     u301:
  2649     04DB  2D0B               	goto	l1113
  2650     04DC                     u300:
  2651     04DC                     l1095:
  2652     04DC  01F5               	clrf	___awdiv@counter
  2653     04DD  0AF5               	incf	___awdiv@counter,f
  2654     04DE  2CE8               	goto	l1101
  2655     04DF                     l1097:
  2656     04DF  3001               	movlw	1
  2657     04E0                     u315:
  2658     04E0  35F0               	lslf	___awdiv@divisor,f
  2659     04E1  0DF1               	rlf	___awdiv@divisor+1,f
  2660     04E2  0B89               	decfsz	9,f
  2661     04E3  2CE0               	goto	u315
  2662     04E4                     l1099:
  2663     04E4  3001               	movlw	1
  2664     04E5  00F4               	movwf	??___awdiv
  2665     04E6  0874               	movf	??___awdiv,w
  2666     04E7  07F5               	addwf	___awdiv@counter,f
  2667     04E8                     l1101:
  2668     04E8  1FF1               	btfss	___awdiv@divisor+1,7
  2669     04E9  2CEB               	goto	u321
  2670     04EA  2CEC               	goto	u320
  2671     04EB                     u321:
  2672     04EB  2CDF               	goto	l1097
  2673     04EC                     u320:
  2674     04EC                     l1103:
  2675     04EC  3001               	movlw	1
  2676     04ED                     u335:
  2677     04ED  35F7               	lslf	___awdiv@quotient,f
  2678     04EE  0DF8               	rlf	___awdiv@quotient+1,f
  2679     04EF  0B89               	decfsz	9,f
  2680     04F0  2CED               	goto	u335
  2681     04F1  0871               	movf	___awdiv@divisor+1,w
  2682     04F2  0273               	subwf	___awdiv@dividend+1,w
  2683     04F3  1D03               	skipz
  2684     04F4  2CF7               	goto	u345
  2685     04F5  0870               	movf	___awdiv@divisor,w
  2686     04F6  0272               	subwf	___awdiv@dividend,w
  2687     04F7                     u345:
  2688     04F7  1C03               	skipc
  2689     04F8  2CFA               	goto	u341
  2690     04F9  2CFB               	goto	u340
  2691     04FA                     u341:
  2692     04FA  2D00               	goto	l1109
  2693     04FB                     u340:
  2694     04FB                     l1105:
  2695     04FB  0870               	movf	___awdiv@divisor,w
  2696     04FC  02F2               	subwf	___awdiv@dividend,f
  2697     04FD  0871               	movf	___awdiv@divisor+1,w
  2698     04FE  3BF3               	subwfb	___awdiv@dividend+1,f
  2699     04FF                     l1107:
  2700     04FF  1477               	bsf	___awdiv@quotient,0
  2701     0500                     l1109:
  2702     0500  3001               	movlw	1
  2703     0501                     u355:
  2704     0501  36F1               	lsrf	___awdiv@divisor+1,f
  2705     0502  0CF0               	rrf	___awdiv@divisor,f
  2706     0503  0B89               	decfsz	9,f
  2707     0504  2D01               	goto	u355
  2708     0505                     l1111:
  2709     0505  3001               	movlw	1
  2710     0506  02F5               	subwf	___awdiv@counter,f
  2711     0507  1D03               	btfss	3,2
  2712     0508  2D0A               	goto	u361
  2713     0509  2D0B               	goto	u360
  2714     050A                     u361:
  2715     050A  2CEC               	goto	l1103
  2716     050B                     u360:
  2717     050B                     l1113:
  2718     050B  0876               	movf	___awdiv@sign,w
  2719     050C  1903               	btfsc	3,2
  2720     050D  2D0F               	goto	u371
  2721     050E  2D10               	goto	u370
  2722     050F                     u371:
  2723     050F  2D15               	goto	l1117
  2724     0510                     u370:
  2725     0510                     l1115:
  2726     0510  09F7               	comf	___awdiv@quotient,f
  2727     0511  09F8               	comf	___awdiv@quotient+1,f
  2728     0512  0AF7               	incf	___awdiv@quotient,f
  2729     0513  1903               	skipnz
  2730     0514  0AF8               	incf	___awdiv@quotient+1,f
  2731     0515                     l1117:
  2732     0515  0878               	movf	___awdiv@quotient+1,w
  2733     0516  00F1               	movwf	?___awdiv+1
  2734     0517  0877               	movf	___awdiv@quotient,w
  2735     0518  00F0               	movwf	?___awdiv
  2736     0519                     l418:
  2737     0519  0008               	return
  2738     051A                     __end_of___awdiv:
  2739     007E                     btemp	set	126	;btemp
  2740     007E                     wtemp0	set	126
  2741                           
  2742                           	psect	config
  2743                           
  2744                           ;Config register CONFIG1 @ 0x8007
  2745                           ;	Oscillator Selection
  2746                           ;	FOSC = HS, HS Oscillator, High-speed crystal/resonator connected between OSC1 and OSC2
      +                           pins
  2747                           ;	Watchdog Timer Enable
  2748                           ;	WDTE = OFF, WDT disabled
  2749                           ;	Power-up Timer Enable
  2750                           ;	PWRTE = OFF, PWRT disabled
  2751                           ;	MCLR Pin Function Select
  2752                           ;	MCLRE = ON, MCLR/VPP pin function is MCLR
  2753                           ;	Flash Program Memory Code Protection
  2754                           ;	CP = OFF, Program memory code protection is disabled
  2755                           ;	Data Memory Code Protection
  2756                           ;	CPD = OFF, Data memory code protection is disabled
  2757                           ;	Brown-out Reset Enable
  2758                           ;	BOREN = ON, Brown-out Reset enabled
  2759                           ;	Clock Out Enable
  2760                           ;	CLKOUTEN = OFF, CLKOUT function is disabled. I/O or oscillator function on the CLKOUT 
      +                          pin
  2761                           ;	Internal/External Switchover
  2762                           ;	IESO = ON, Internal/External Switchover mode is enabled
  2763                           ;	Fail-Safe Clock Monitor Enable
  2764                           ;	FCMEN = ON, Fail-Safe Clock Monitor is enabled
  2765     8007                     	org	32775
  2766     8007  3FE2               	dw	16354
  2767                           
  2768                           ;Config register CONFIG2 @ 0x8008
  2769                           ;	Flash Memory Self-Write Protection
  2770                           ;	WRT = OFF, Write protection off
  2771                           ;	Voltage Regulator Capacitor Enable
  2772                           ;	VCAPEN = OFF, All VCAP pin functionality is disabled
  2773                           ;	PLL Enable
  2774                           ;	PLLEN = OFF, 4x PLL disabled
  2775                           ;	Stack Overflow/Underflow Reset Enable
  2776                           ;	STVREN = ON, Stack Overflow or Underflow will cause a Reset
  2777                           ;	Brown-out Reset Voltage Selection
  2778                           ;	BORV = LO, Brown-out Reset Voltage (Vbor), low trip point selected.
  2779                           ;	Low-Voltage Programming Enable
  2780                           ;	LVP = ON, Low-voltage programming enabled
  2781     8008                     	org	32776
  2782     8008  3EFF               	dw	16127

Data Sizes:
    Strings     0
    Constant    0
    Data        0
    BSS         6
    Persistent  34
    Stack       0

Auto Spaces:
    Space          Size  Autos    Used
    COMMON           14     11      14
    BANK0            80      0       5
    BANK1            80      0       0
    BANK2            80      0       0
    BANK3            80      0       0
    BANK4            80      0       0
    BANK5            80      0       0
    BANK6            80      0       0
    BANK7            80      0       0
    BANK8            80      0       0
    BANK9            80      0       0
    BANK10           80      0       0
    BANK11           80      0       0
    BANK12           48      0       0

Pointer List with Targets:

    None.

Critical Paths under _main in COMMON

    _main->___awdiv

Critical Paths under _main in BANK0

    None.

Critical Paths under _main in BANK1

    None.

Critical Paths under _main in BANK2

    None.

Critical Paths under _main in BANK3

    None.

Critical Paths under _main in BANK4

    None.

Critical Paths under _main in BANK5

    None.

Critical Paths under _main in BANK6

    None.

Critical Paths under _main in BANK7

    None.

Critical Paths under _main in BANK8

    None.

Critical Paths under _main in BANK9

    None.

Critical Paths under _main in BANK10

    None.

Critical Paths under _main in BANK11

    None.

Critical Paths under _main in BANK12

    None.

Call Graph Tables:

 ---------------------------------------------------------------------------------
 (Depth) Function   	        Calls       Base Space   Used Autos Params    Refs
 ---------------------------------------------------------------------------------
 (0) _main                                                 2     2      0    4288
                                              9 COMMON     2     2      0
                            ___awdiv
                            ___awmod
                        _display_cc1
                        _display_cc2
                       _display_init
                        _init_punto7
 ---------------------------------------------------------------------------------
 (1) _init_punto7                                          0     0      0       0
 ---------------------------------------------------------------------------------
 (1) _display_init                                         0     0      0       0
 ---------------------------------------------------------------------------------
 (1) _display_cc2                                          2     0      2     630
                                              0 COMMON     2     0      2
 ---------------------------------------------------------------------------------
 (1) _display_cc1                                          2     0      2     630
                                              0 COMMON     2     0      2
 ---------------------------------------------------------------------------------
 (1) ___awmod                                              7     3      4    1512
                                              0 COMMON     7     3      4
 ---------------------------------------------------------------------------------
 (1) ___awdiv                                              9     5      4    1516
                                              0 COMMON     9     5      4
 ---------------------------------------------------------------------------------
 Estimated maximum stack depth 1
 ---------------------------------------------------------------------------------

 Call Graph Graphs:

 _main (ROOT)
   ___awdiv
   ___awmod
   _display_cc1
   _display_cc2
   _display_init
   _init_punto7

 Address spaces:
Name               Size   Autos  Total    Cost      Usage
BIGRAM             3F0      0       0       0        0.0%
EEDATA             100      0       0       0        0.0%
NULL                 0      0       0       0        0.0%
CODE                 0      0       0       0        0.0%
BITCOMMON            E      0       0       1        0.0%
BITSFR0              0      0       0       1        0.0%
SFR0                 0      0       0       1        0.0%
COMMON               E      B       E       2      100.0%
BITSFR1              0      0       0       2        0.0%
SFR1                 0      0       0       2        0.0%
BITSFR2              0      0       0       3        0.0%
SFR2                 0      0       0       3        0.0%
STACK                0      0       0       3        0.0%
BITBANK0            50      0       0       4        0.0%
BITSFR3              0      0       0       4        0.0%
SFR3                 0      0       0       4        0.0%
BANK0               50      0       5       5        6.2%
BITSFR4              0      0       0       5        0.0%
SFR4                 0      0       0       5        0.0%
BITBANK1            50      0       0       6        0.0%
BITSFR5              0      0       0       6        0.0%
SFR5                 0      0       0       6        0.0%
BANK1               50      0       0       7        0.0%
BITSFR6              0      0       0       7        0.0%
SFR6                 0      0       0       7        0.0%
BITBANK2            50      0       0       8        0.0%
BITSFR7              0      0       0       8        0.0%
SFR7                 0      0       0       8        0.0%
BANK2               50      0       0       9        0.0%
BITSFR8              0      0       0       9        0.0%
SFR8                 0      0       0       9        0.0%
BITBANK3            50      0       0      10        0.0%
BITSFR9              0      0       0      10        0.0%
SFR9                 0      0       0      10        0.0%
BANK3               50      0       0      11        0.0%
BITSFR10             0      0       0      11        0.0%
SFR10                0      0       0      11        0.0%
BITBANK4            50      0       0      12        0.0%
BITSFR11             0      0       0      12        0.0%
SFR11                0      0       0      12        0.0%
BANK4               50      0       0      13        0.0%
BITSFR12             0      0       0      13        0.0%
SFR12                0      0       0      13        0.0%
BITBANK5            50      0       0      14        0.0%
BITSFR13             0      0       0      14        0.0%
SFR13                0      0       0      14        0.0%
BANK5               50      0       0      15        0.0%
BITSFR14             0      0       0      15        0.0%
SFR14                0      0       0      15        0.0%
BITBANK6            50      0       0      16        0.0%
BITSFR15             0      0       0      16        0.0%
SFR15                0      0       0      16        0.0%
BANK6               50      0       0      17        0.0%
BITSFR16             0      0       0      17        0.0%
SFR16                0      0       0      17        0.0%
BITBANK7            50      0       0      18        0.0%
BITSFR17             0      0       0      18        0.0%
SFR17                0      0       0      18        0.0%
BANK7               50      0       0      19        0.0%
BITSFR18             0      0       0      19        0.0%
SFR18                0      0       0      19        0.0%
BITSFR19             0      0       0      20        0.0%
SFR19                0      0       0      20        0.0%
ABS                  0      0      13      20        0.0%
BITBANK8            50      0       0      21        0.0%
BITSFR20             0      0       0      21        0.0%
SFR20                0      0       0      21        0.0%
BANK8               50      0       0      22        0.0%
BITSFR21             0      0       0      22        0.0%
SFR21                0      0       0      22        0.0%
BITBANK9            50      0       0      23        0.0%
BITSFR22             0      0       0      23        0.0%
SFR22                0      0       0      23        0.0%
BANK9               50      0       0      24        0.0%
BITSFR23             0      0       0      24        0.0%
SFR23                0      0       0      24        0.0%
BITBANK10           50      0       0      25        0.0%
BITSFR24             0      0       0      25        0.0%
SFR24                0      0       0      25        0.0%
BANK10              50      0       0      26        0.0%
BITSFR25             0      0       0      26        0.0%
SFR25                0      0       0      26        0.0%
BITBANK11           50      0       0      27        0.0%
BITSFR26             0      0       0      27        0.0%
SFR26                0      0       0      27        0.0%
BANK11              50      0       0      28        0.0%
BITSFR27             0      0       0      28        0.0%
SFR27                0      0       0      28        0.0%
BITBANK12           30      0       0      29        0.0%
BITSFR28             0      0       0      29        0.0%
SFR28                0      0       0      29        0.0%
BANK12              30      0       0      30        0.0%
BITSFR29             0      0       0      30        0.0%
SFR29                0      0       0      30        0.0%
BITSFR30             0      0       0      31        0.0%
SFR30                0      0       0      31        0.0%
DATA                 0      0      13      31        0.0%
BITSFR31             0      0       0      32        0.0%
SFR31                0      0       0      32        0.0%


Microchip Technology PIC Macro Assembler V2.41 build 20230208172133 
Symbol Table                                                                                   Thu Sep 07 20:11:54 2023

           ?_display_cc1 0070             ?_display_cc2 0070                       l13 0467  
                     l40 0626                       l70 045A                       l54 0794  
                     l91 0524                       l92 052D                       l93 0536  
                     l94 053F                       l95 0548                       l96 0551  
                     l97 055A                       l89 051B                       l98 0563  
                     l99 056C             ___awdiv@sign 0076                      l100 059A  
                    l110 05C9                      l111 05D2                      l112 05DB  
                    l104 059C                      l113 05E4                      l114 05ED  
                    l106 05A5                      l107 05AE                      l115 061B  
                    l108 05B7                      l109 05C0                      l431 04BA  
                    l418 0519            ?_display_init 0070                      u300 04DC  
                    u301 04DB                      u320 04EC                      u400 0483  
                    u321 04EB                      u401 0482                      u315 04E0  
                    u340 04FB                      u420 0493                      u500 06BD  
                    u341 04FA                      u421 0492                      u501 06BC  
                    u430 049D                      u510 06C3                      u335 04ED  
                    u431 049C                      u415 0487                      u511 06C2  
                    u360 050B                      u280 04C0                      u520 06C9  
                    u361 050A                      u345 04F7                      u281 04BF  
                    u521 06C8                      u370 0510                      u290 04CB  
                    u450 04AC                      u530 074F                      u371 050F  
                    u355 0501                      u291 04CA                      u451 04AB  
                    u435 0499                      u531 074E                      u460 04B1  
                    u380 046D                      u540 079D                      u461 04B0  
                    u445 04A2                      u381 046C                      u541 079C  
                    u390 0478                      u470 0630                      u391 0477  
                    u607 07D1                      u471 062F                      u480 0637  
                    u481 0636                      u490 063E                      u491 063D  
                    u557 0672                      u567 06B2                      u577 0701  
                    u587 0741                      u597 0787             ___awmod@sign 0076  
                    wreg 0009                     l1101 04E8                     l1111 0505  
                   l1103 04EC                     l1105 04FB                     l1113 050B  
                   l1121 0468                     l1201 06C3                     l1115 0510  
                   l1107 04FF                     l1131 0478                     l1123 0469  
                   l1051 0464                     l1211 06F4                     l1203 06C9  
                   l1117 0515                     l1109 0500                     l1141 048F  
                   l1133 047D                     l1125 046D                     l1061 0575  
                   l1053 0466                     l1045 045B                     l1221 0734  
                   l1205 06CD                     l1213 0707                     l1143 0493  
                   l1135 0483                     l1151 04AC                     l1127 0472  
                   l1071 05F6                     l1055 0457                     l1047 045E  
                   l1231 0753                     l1223 073C                     l1215 070D  
                   l1207 06DD                     l1081 04C0                     l1153 04B1  
                   l1145 049D                     l1137 0486                     l1129 0474  
                   l1057 051A                     l1049 045F                     l1233 0763  
                   l1225 0748                     l1217 071D                     l1209 06ED  
                   l1161 061F                     l1091 04D4                     l1083 04C5  
                   l1155 04B6                     l1147 04A1                     l1139 048B  
                   l1067 059B                     l1251 0796                     l1235 0773  
                   l1227 0749                     l1219 072D                     l1171 0637  
                   l1163 0622                     l1093 04D6                     l1085 04C7  
                   l1077 04BB                     l1149 04A6                     l1261 07C4  
                   l1253 079D                     l1237 077A                     l1229 074F  
                   l1181 0665                     l1173 063E                     l1165 0624  
                   l1095 04DC                     l1087 04CB                     l1079 04BC  
                   l1263 07CC                     l1255 079F                     l1239 078D  
                   l1191 069E                     l1183 066D                     l1175 0640  
                   l1167 062B                     l1159 061C                     l1097 04DF  
                   l1089 04D0                     l1361 057A                     l1257 07AE  
                   l1265 07D7                     l1193 06A5                     l1177 064F  
                   l1185 0678                     l1169 0630                     l1099 04E4  
                   l1259 07BD                     l1195 06AD                     l1187 067E  
                   l1179 065E                     l1357 07E6                     l1189 068E  
                   l1197 06B8                     l1359 05FB                     l1199 06BD  
                   l1279 07DE                     _dig1 0022                     _dig2 0020  
                   _main 061C                     btemp 007E                     start 0002  
         ??_display_init 0070                    ?_main 0070          __end_of___awdiv 051A  
        __end_of___awmod 04BB          ___awdiv@divisor 0070          ___awdiv@counter 0075  
                  _PORTB 000D                    _TRISC 008E                    _TRISD 008F  
           ?_init_punto7 0070                    status 0003                    wtemp0 007E  
        __initialization 07F6             __end_of_main 07F6                   ??_main 0079  
       ___awdiv@dividend 0072                   _BORCON 0116                   _OSCCON 0099  
              ??___awdiv 0074                ??___awmod 0074         ___awdiv@quotient 0077  
        ___awmod@divisor 0070                   _numero 0024          ___awmod@counter 0075  
__end_of__initialization 07FD     __end_of_display_init 045B           __pcstackCOMMON 0070  
             __pbssBANK0 0020               __pnvCOMMON 007D               __pmaintext 061C  
                _OSCTUNE 0098                  ___awdiv 04BB                  ___awmod 0468  
                __ptext1 045B                  __ptext2 0457                  __ptext3 059B  
                __ptext4 051A                  __ptext5 0468                  __ptext6 04BB  
       ___awmod@dividend 0072           display_cc1@dig 0070     end_of_initialization 07FD  
           _display_init 0457            ??_display_cc1 0072            ??_display_cc2 0072  
    start_initialization 07F6      __end_of_display_cc1 059B      __end_of_display_cc2 061C  
            __pbssCOMMON 007B                ___latbits 0003            ??_init_punto7 0070  
              __pnvBANK0 0024                 ?___awdiv 0070                 ?___awmod 0070  
              _direccion 007D      __end_of_init_punto7 0468                 _LATCbits 010E  
               _LATDbits 010F              _display_cc1 051A              _display_cc2 059B  
             _ANSELBbits 018D              _init_punto7 045B                 _contador 007B  
        display_cc2@dig2 0070  
